
boot.elf:     file format elf64-littleriscv


Disassembly of section .text:

0000000080000000 <_start-0x8>:
	...

0000000080000008 <_start>:
    80000008:	0810011b          	addiw	sp,zero,129
    8000000c:	01811113          	slli	sp,sp,0x18
    80000010:	57d030ef          	jal	ra,80003d8c <main>

0000000080000014 <_hang>:
    80000014:	10500073          	wfi
    80000018:	ffdff06f          	j	80000014 <_hang>

000000008000001c <kputc>:
    8000001c:	fd010113          	addi	sp,sp,-48
    80000020:	02813423          	sd	s0,40(sp)
    80000024:	03010413          	addi	s0,sp,48
    80000028:	00050793          	mv	a5,a0
    8000002c:	fcf40fa3          	sb	a5,-33(s0)
    80000030:	600107b7          	lui	a5,0x60010
    80000034:	fef43423          	sd	a5,-24(s0)
    80000038:	00000013          	nop
    8000003c:	fe843783          	ld	a5,-24(s0)
    80000040:	0087a783          	lw	a5,8(a5) # 60010008 <_start-0x1fff0000>
    80000044:	0007879b          	sext.w	a5,a5
    80000048:	0087f793          	andi	a5,a5,8
    8000004c:	0007879b          	sext.w	a5,a5
    80000050:	fe0796e3          	bnez	a5,8000003c <kputc+0x20>
    80000054:	fdf44783          	lbu	a5,-33(s0)
    80000058:	0007871b          	sext.w	a4,a5
    8000005c:	fe843783          	ld	a5,-24(s0)
    80000060:	00e7a223          	sw	a4,4(a5)
    80000064:	00000013          	nop
    80000068:	02813403          	ld	s0,40(sp)
    8000006c:	03010113          	addi	sp,sp,48
    80000070:	00008067          	ret

0000000080000074 <kputs>:
    80000074:	fe010113          	addi	sp,sp,-32
    80000078:	00113c23          	sd	ra,24(sp)
    8000007c:	00813823          	sd	s0,16(sp)
    80000080:	02010413          	addi	s0,sp,32
    80000084:	fea43423          	sd	a0,-24(s0)
    80000088:	01c0006f          	j	800000a4 <kputs+0x30>
    8000008c:	fe843783          	ld	a5,-24(s0)
    80000090:	00178713          	addi	a4,a5,1
    80000094:	fee43423          	sd	a4,-24(s0)
    80000098:	0007c783          	lbu	a5,0(a5)
    8000009c:	00078513          	mv	a0,a5
    800000a0:	f7dff0ef          	jal	ra,8000001c <kputc>
    800000a4:	fe843783          	ld	a5,-24(s0)
    800000a8:	0007c783          	lbu	a5,0(a5)
    800000ac:	fe0790e3          	bnez	a5,8000008c <kputs+0x18>
    800000b0:	00d00513          	li	a0,13
    800000b4:	f69ff0ef          	jal	ra,8000001c <kputc>
    800000b8:	00a00513          	li	a0,10
    800000bc:	f61ff0ef          	jal	ra,8000001c <kputc>
    800000c0:	00000013          	nop
    800000c4:	01813083          	ld	ra,24(sp)
    800000c8:	01013403          	ld	s0,16(sp)
    800000cc:	02010113          	addi	sp,sp,32
    800000d0:	00008067          	ret

00000000800000d4 <kprintf>:
    800000d4:	f3010113          	addi	sp,sp,-208
    800000d8:	08113423          	sd	ra,136(sp)
    800000dc:	08813023          	sd	s0,128(sp)
    800000e0:	09010413          	addi	s0,sp,144
    800000e4:	f6a43c23          	sd	a0,-136(s0)
    800000e8:	00b43423          	sd	a1,8(s0)
    800000ec:	00c43823          	sd	a2,16(s0)
    800000f0:	00d43c23          	sd	a3,24(s0)
    800000f4:	02e43023          	sd	a4,32(s0)
    800000f8:	02f43423          	sd	a5,40(s0)
    800000fc:	03043823          	sd	a6,48(s0)
    80000100:	03143c23          	sd	a7,56(s0)
    80000104:	fe042623          	sw	zero,-20(s0)
    80000108:	fe042423          	sw	zero,-24(s0)
    8000010c:	fe042223          	sw	zero,-28(s0)
    80000110:	04040793          	addi	a5,s0,64
    80000114:	fc878793          	addi	a5,a5,-56
    80000118:	faf43023          	sd	a5,-96(s0)
    8000011c:	2f00006f          	j	8000040c <kprintf+0x338>
    80000120:	fec42783          	lw	a5,-20(s0)
    80000124:	0007879b          	sext.w	a5,a5
    80000128:	28078c63          	beqz	a5,800003c0 <kprintf+0x2ec>
    8000012c:	fb744783          	lbu	a5,-73(s0)
    80000130:	0007879b          	sext.w	a5,a5
    80000134:	f9d7869b          	addiw	a3,a5,-99
    80000138:	0006871b          	sext.w	a4,a3
    8000013c:	01500793          	li	a5,21
    80000140:	26e7e863          	bltu	a5,a4,800003b0 <kprintf+0x2dc>
    80000144:	02069793          	slli	a5,a3,0x20
    80000148:	0207d793          	srli	a5,a5,0x20
    8000014c:	00279713          	slli	a4,a5,0x2
    80000150:	00007797          	auipc	a5,0x7
    80000154:	f1878793          	addi	a5,a5,-232 # 80007068 <Xil_AssertSetCallback+0x34>
    80000158:	00f707b3          	add	a5,a4,a5
    8000015c:	0007a783          	lw	a5,0(a5)
    80000160:	0007871b          	sext.w	a4,a5
    80000164:	00007797          	auipc	a5,0x7
    80000168:	f0478793          	addi	a5,a5,-252 # 80007068 <Xil_AssertSetCallback+0x34>
    8000016c:	00f707b3          	add	a5,a4,a5
    80000170:	00078067          	jr	a5
    80000174:	00100793          	li	a5,1
    80000178:	fef42423          	sw	a5,-24(s0)
    8000017c:	2900006f          	j	8000040c <kprintf+0x338>
    80000180:	00100793          	li	a5,1
    80000184:	fef42223          	sw	a5,-28(s0)
    80000188:	2840006f          	j	8000040c <kprintf+0x338>
    8000018c:	fe842783          	lw	a5,-24(s0)
    80000190:	0007879b          	sext.w	a5,a5
    80000194:	02078263          	beqz	a5,800001b8 <kprintf+0xe4>
    80000198:	fa043783          	ld	a5,-96(s0)
    8000019c:	00878713          	addi	a4,a5,8
    800001a0:	fae43023          	sd	a4,-96(s0)
    800001a4:	0007b783          	ld	a5,0(a5)
    800001a8:	fcf43c23          	sd	a5,-40(s0)
    800001ac:	03c00793          	li	a5,60
    800001b0:	fcf43823          	sd	a5,-48(s0)
    800001b4:	09c0006f          	j	80000250 <kprintf+0x17c>
    800001b8:	fa043783          	ld	a5,-96(s0)
    800001bc:	00878713          	addi	a4,a5,8
    800001c0:	fae43023          	sd	a4,-96(s0)
    800001c4:	0007a783          	lw	a5,0(a5)
    800001c8:	02079793          	slli	a5,a5,0x20
    800001cc:	0207d793          	srli	a5,a5,0x20
    800001d0:	fcf43c23          	sd	a5,-40(s0)
    800001d4:	fe442783          	lw	a5,-28(s0)
    800001d8:	0007879b          	sext.w	a5,a5
    800001dc:	00078663          	beqz	a5,800001e8 <kprintf+0x114>
    800001e0:	00400793          	li	a5,4
    800001e4:	0080006f          	j	800001ec <kprintf+0x118>
    800001e8:	01c00793          	li	a5,28
    800001ec:	fcf43823          	sd	a5,-48(s0)
    800001f0:	0600006f          	j	80000250 <kprintf+0x17c>
    800001f4:	fd043783          	ld	a5,-48(s0)
    800001f8:	0007879b          	sext.w	a5,a5
    800001fc:	fd843703          	ld	a4,-40(s0)
    80000200:	00f757b3          	srl	a5,a4,a5
    80000204:	00f7f793          	andi	a5,a5,15
    80000208:	faf43423          	sd	a5,-88(s0)
    8000020c:	fa843703          	ld	a4,-88(s0)
    80000210:	00900793          	li	a5,9
    80000214:	00e7cc63          	blt	a5,a4,8000022c <kprintf+0x158>
    80000218:	fa843783          	ld	a5,-88(s0)
    8000021c:	0ff7f793          	andi	a5,a5,255
    80000220:	0307879b          	addiw	a5,a5,48
    80000224:	0ff7f793          	andi	a5,a5,255
    80000228:	0140006f          	j	8000023c <kprintf+0x168>
    8000022c:	fa843783          	ld	a5,-88(s0)
    80000230:	0ff7f793          	andi	a5,a5,255
    80000234:	0577879b          	addiw	a5,a5,87
    80000238:	0ff7f793          	andi	a5,a5,255
    8000023c:	00078513          	mv	a0,a5
    80000240:	dddff0ef          	jal	ra,8000001c <kputc>
    80000244:	fd043783          	ld	a5,-48(s0)
    80000248:	ffc78793          	addi	a5,a5,-4
    8000024c:	fcf43823          	sd	a5,-48(s0)
    80000250:	fd043783          	ld	a5,-48(s0)
    80000254:	fa07d0e3          	bgez	a5,800001f4 <kprintf+0x120>
    80000258:	1580006f          	j	800003b0 <kprintf+0x2dc>
    8000025c:	02000793          	li	a5,32
    80000260:	fcf43023          	sd	a5,-64(s0)
    80000264:	fe842783          	lw	a5,-24(s0)
    80000268:	0007879b          	sext.w	a5,a5
    8000026c:	00078e63          	beqz	a5,80000288 <kprintf+0x1b4>
    80000270:	fa043783          	ld	a5,-96(s0)
    80000274:	00878713          	addi	a4,a5,8
    80000278:	fae43023          	sd	a4,-96(s0)
    8000027c:	0007b783          	ld	a5,0(a5)
    80000280:	fcf43423          	sd	a5,-56(s0)
    80000284:	0180006f          	j	8000029c <kprintf+0x1c8>
    80000288:	fa043783          	ld	a5,-96(s0)
    8000028c:	00878713          	addi	a4,a5,8
    80000290:	fae43023          	sd	a4,-96(s0)
    80000294:	0007a783          	lw	a5,0(a5)
    80000298:	fcf43423          	sd	a5,-56(s0)
    8000029c:	fc843783          	ld	a5,-56(s0)
    800002a0:	0607d463          	bgez	a5,80000308 <kprintf+0x234>
    800002a4:	02d00513          	li	a0,45
    800002a8:	d75ff0ef          	jal	ra,8000001c <kputc>
    800002ac:	fc843783          	ld	a5,-56(s0)
    800002b0:	40f007b3          	neg	a5,a5
    800002b4:	fcf43423          	sd	a5,-56(s0)
    800002b8:	0500006f          	j	80000308 <kprintf+0x234>
    800002bc:	fc843703          	ld	a4,-56(s0)
    800002c0:	00a00793          	li	a5,10
    800002c4:	02f767b3          	rem	a5,a4,a5
    800002c8:	0ff7f793          	andi	a5,a5,255
    800002cc:	fc043703          	ld	a4,-64(s0)
    800002d0:	fff70713          	addi	a4,a4,-1
    800002d4:	fce43023          	sd	a4,-64(s0)
    800002d8:	0307879b          	addiw	a5,a5,48
    800002dc:	0ff7f713          	andi	a4,a5,255
    800002e0:	fc043783          	ld	a5,-64(s0)
    800002e4:	ff040693          	addi	a3,s0,-16
    800002e8:	00f687b3          	add	a5,a3,a5
    800002ec:	f8e78823          	sb	a4,-112(a5)
    800002f0:	fc843703          	ld	a4,-56(s0)
    800002f4:	00a00793          	li	a5,10
    800002f8:	02f747b3          	div	a5,a4,a5
    800002fc:	fcf43423          	sd	a5,-56(s0)
    80000300:	fc843783          	ld	a5,-56(s0)
    80000304:	00078863          	beqz	a5,80000314 <kprintf+0x240>
    80000308:	fc043783          	ld	a5,-64(s0)
    8000030c:	faf048e3          	bgtz	a5,800002bc <kprintf+0x1e8>
    80000310:	02c0006f          	j	8000033c <kprintf+0x268>
    80000314:	00000013          	nop
    80000318:	0240006f          	j	8000033c <kprintf+0x268>
    8000031c:	fc043783          	ld	a5,-64(s0)
    80000320:	00178713          	addi	a4,a5,1
    80000324:	fce43023          	sd	a4,-64(s0)
    80000328:	ff040713          	addi	a4,s0,-16
    8000032c:	00f707b3          	add	a5,a4,a5
    80000330:	f907c783          	lbu	a5,-112(a5)
    80000334:	00078513          	mv	a0,a5
    80000338:	ce5ff0ef          	jal	ra,8000001c <kputc>
    8000033c:	fc043703          	ld	a4,-64(s0)
    80000340:	01f00793          	li	a5,31
    80000344:	fce7fce3          	bgeu	a5,a4,8000031c <kprintf+0x248>
    80000348:	00000013          	nop
    8000034c:	0640006f          	j	800003b0 <kprintf+0x2dc>
    80000350:	fa043783          	ld	a5,-96(s0)
    80000354:	00878713          	addi	a4,a5,8
    80000358:	fae43023          	sd	a4,-96(s0)
    8000035c:	0007b783          	ld	a5,0(a5)
    80000360:	faf43c23          	sd	a5,-72(s0)
    80000364:	01c0006f          	j	80000380 <kprintf+0x2ac>
    80000368:	fb843783          	ld	a5,-72(s0)
    8000036c:	00178713          	addi	a4,a5,1
    80000370:	fae43c23          	sd	a4,-72(s0)
    80000374:	0007c783          	lbu	a5,0(a5)
    80000378:	00078513          	mv	a0,a5
    8000037c:	ca1ff0ef          	jal	ra,8000001c <kputc>
    80000380:	fb843783          	ld	a5,-72(s0)
    80000384:	0007c783          	lbu	a5,0(a5)
    80000388:	fe0790e3          	bnez	a5,80000368 <kprintf+0x294>
    8000038c:	0240006f          	j	800003b0 <kprintf+0x2dc>
    80000390:	fa043783          	ld	a5,-96(s0)
    80000394:	00878713          	addi	a4,a5,8
    80000398:	fae43023          	sd	a4,-96(s0)
    8000039c:	0007a783          	lw	a5,0(a5)
    800003a0:	0ff7f793          	andi	a5,a5,255
    800003a4:	00078513          	mv	a0,a5
    800003a8:	c75ff0ef          	jal	ra,8000001c <kputc>
    800003ac:	00000013          	nop
    800003b0:	fe042623          	sw	zero,-20(s0)
    800003b4:	fe042423          	sw	zero,-24(s0)
    800003b8:	fe042223          	sw	zero,-28(s0)
    800003bc:	0500006f          	j	8000040c <kprintf+0x338>
    800003c0:	fb744783          	lbu	a5,-73(s0)
    800003c4:	0ff7f713          	andi	a4,a5,255
    800003c8:	02500793          	li	a5,37
    800003cc:	00f71863          	bne	a4,a5,800003dc <kprintf+0x308>
    800003d0:	00100793          	li	a5,1
    800003d4:	fef42623          	sw	a5,-20(s0)
    800003d8:	0340006f          	j	8000040c <kprintf+0x338>
    800003dc:	fb744783          	lbu	a5,-73(s0)
    800003e0:	0ff7f713          	andi	a4,a5,255
    800003e4:	00a00793          	li	a5,10
    800003e8:	00f71c63          	bne	a4,a5,80000400 <kprintf+0x32c>
    800003ec:	00d00513          	li	a0,13
    800003f0:	c2dff0ef          	jal	ra,8000001c <kputc>
    800003f4:	00a00513          	li	a0,10
    800003f8:	c25ff0ef          	jal	ra,8000001c <kputc>
    800003fc:	0100006f          	j	8000040c <kprintf+0x338>
    80000400:	fb744783          	lbu	a5,-73(s0)
    80000404:	00078513          	mv	a0,a5
    80000408:	c15ff0ef          	jal	ra,8000001c <kputc>
    8000040c:	f7843783          	ld	a5,-136(s0)
    80000410:	00178713          	addi	a4,a5,1
    80000414:	f6e43c23          	sd	a4,-136(s0)
    80000418:	0007c783          	lbu	a5,0(a5)
    8000041c:	faf40ba3          	sb	a5,-73(s0)
    80000420:	fb744783          	lbu	a5,-73(s0)
    80000424:	0ff7f793          	andi	a5,a5,255
    80000428:	ce079ce3          	bnez	a5,80000120 <kprintf+0x4c>
    8000042c:	00000013          	nop
    80000430:	08813083          	ld	ra,136(sp)
    80000434:	08013403          	ld	s0,128(sp)
    80000438:	0d010113          	addi	sp,sp,208
    8000043c:	00008067          	ret

0000000080000440 <XAssert>:
    80000440:	fe010113          	addi	sp,sp,-32
    80000444:	00113c23          	sd	ra,24(sp)
    80000448:	00813823          	sd	s0,16(sp)
    8000044c:	02010413          	addi	s0,sp,32
    80000450:	fea43423          	sd	a0,-24(s0)
    80000454:	00058793          	mv	a5,a1
    80000458:	fef42223          	sw	a5,-28(s0)
    8000045c:	00007797          	auipc	a5,0x7
    80000460:	de478793          	addi	a5,a5,-540 # 80007240 <XAssertCallbackRoutine>
    80000464:	0007b783          	ld	a5,0(a5)
    80000468:	02078063          	beqz	a5,80000488 <XAssert+0x48>
    8000046c:	00007797          	auipc	a5,0x7
    80000470:	dd478793          	addi	a5,a5,-556 # 80007240 <XAssertCallbackRoutine>
    80000474:	0007b703          	ld	a4,0(a5)
    80000478:	fe442783          	lw	a5,-28(s0)
    8000047c:	00078593          	mv	a1,a5
    80000480:	fe843503          	ld	a0,-24(s0)
    80000484:	000700e7          	jalr	a4
    80000488:	00000013          	nop
    8000048c:	00007797          	auipc	a5,0x7
    80000490:	d5478793          	addi	a5,a5,-684 # 800071e0 <XWaitInAssert>
    80000494:	0007a783          	lw	a5,0(a5)
    80000498:	fe079ae3          	bnez	a5,8000048c <XAssert+0x4c>
    8000049c:	00000013          	nop
    800004a0:	01813083          	ld	ra,24(sp)
    800004a4:	01013403          	ld	s0,16(sp)
    800004a8:	02010113          	addi	sp,sp,32
    800004ac:	00008067          	ret

00000000800004b0 <XAssertSetCallback>:
    800004b0:	fe010113          	addi	sp,sp,-32
    800004b4:	00813c23          	sd	s0,24(sp)
    800004b8:	02010413          	addi	s0,sp,32
    800004bc:	fea43423          	sd	a0,-24(s0)
    800004c0:	00007797          	auipc	a5,0x7
    800004c4:	d8078793          	addi	a5,a5,-640 # 80007240 <XAssertCallbackRoutine>
    800004c8:	fe843703          	ld	a4,-24(s0)
    800004cc:	00e7b023          	sd	a4,0(a5)
    800004d0:	00000013          	nop
    800004d4:	01813403          	ld	s0,24(sp)
    800004d8:	02010113          	addi	sp,sp,32
    800004dc:	00008067          	ret

00000000800004e0 <XNullHandler>:
    800004e0:	fe010113          	addi	sp,sp,-32
    800004e4:	00813c23          	sd	s0,24(sp)
    800004e8:	02010413          	addi	s0,sp,32
    800004ec:	fea43423          	sd	a0,-24(s0)
    800004f0:	00000013          	nop
    800004f4:	01813403          	ld	s0,24(sp)
    800004f8:	02010113          	addi	sp,sp,32
    800004fc:	00008067          	ret

0000000080000500 <Xil_In32>:
    80000500:	fe010113          	addi	sp,sp,-32
    80000504:	00813c23          	sd	s0,24(sp)
    80000508:	02010413          	addi	s0,sp,32
    8000050c:	fea43423          	sd	a0,-24(s0)
    80000510:	fe843783          	ld	a5,-24(s0)
    80000514:	0007a783          	lw	a5,0(a5)
    80000518:	0007879b          	sext.w	a5,a5
    8000051c:	00078513          	mv	a0,a5
    80000520:	01813403          	ld	s0,24(sp)
    80000524:	02010113          	addi	sp,sp,32
    80000528:	00008067          	ret

000000008000052c <Xil_Out32>:
    8000052c:	fd010113          	addi	sp,sp,-48
    80000530:	02813423          	sd	s0,40(sp)
    80000534:	03010413          	addi	s0,sp,48
    80000538:	fca43c23          	sd	a0,-40(s0)
    8000053c:	00058793          	mv	a5,a1
    80000540:	fcf42a23          	sw	a5,-44(s0)
    80000544:	fd843783          	ld	a5,-40(s0)
    80000548:	fef43423          	sd	a5,-24(s0)
    8000054c:	fe843783          	ld	a5,-24(s0)
    80000550:	fd442703          	lw	a4,-44(s0)
    80000554:	00e7a023          	sw	a4,0(a5)
    80000558:	00000013          	nop
    8000055c:	02813403          	ld	s0,40(sp)
    80000560:	03010113          	addi	sp,sp,48
    80000564:	00008067          	ret

0000000080000568 <XIic_CfgInitialize>:
    80000568:	fd010113          	addi	sp,sp,-48
    8000056c:	02113423          	sd	ra,40(sp)
    80000570:	02813023          	sd	s0,32(sp)
    80000574:	03010413          	addi	s0,sp,48
    80000578:	fea43423          	sd	a0,-24(s0)
    8000057c:	feb43023          	sd	a1,-32(s0)
    80000580:	fcc43c23          	sd	a2,-40(s0)
    80000584:	fe843783          	ld	a5,-24(s0)
    80000588:	02078a63          	beqz	a5,800005bc <XIic_CfgInitialize+0x54>
    8000058c:	00007797          	auipc	a5,0x7
    80000590:	cb078793          	addi	a5,a5,-848 # 8000723c <Xil_AssertStatus>
    80000594:	0007a023          	sw	zero,0(a5)
    80000598:	fe843783          	ld	a5,-24(s0)
    8000059c:	0007ae23          	sw	zero,28(a5)
    800005a0:	fe843783          	ld	a5,-24(s0)
    800005a4:	0207a783          	lw	a5,32(a5)
    800005a8:	00078713          	mv	a4,a5
    800005ac:	222227b7          	lui	a5,0x22222
    800005b0:	22278793          	addi	a5,a5,546 # 22222222 <_start-0x5ddddde6>
    800005b4:	02f71c63          	bne	a4,a5,800005ec <XIic_CfgInitialize+0x84>
    800005b8:	02c0006f          	j	800005e4 <XIic_CfgInitialize+0x7c>
    800005bc:	08900593          	li	a1,137
    800005c0:	00007517          	auipc	a0,0x7
    800005c4:	b0050513          	addi	a0,a0,-1280 # 800070c0 <Xil_AssertSetCallback+0x8c>
    800005c8:	1fd060ef          	jal	ra,80006fc4 <Xil_Assert>
    800005cc:	00007797          	auipc	a5,0x7
    800005d0:	c7078793          	addi	a5,a5,-912 # 8000723c <Xil_AssertStatus>
    800005d4:	00100713          	li	a4,1
    800005d8:	00e7a023          	sw	a4,0(a5)
    800005dc:	00000793          	li	a5,0
    800005e0:	0c40006f          	j	800006a4 <XIic_CfgInitialize+0x13c>
    800005e4:	00500793          	li	a5,5
    800005e8:	0bc0006f          	j	800006a4 <XIic_CfgInitialize+0x13c>
    800005ec:	fe843783          	ld	a5,-24(s0)
    800005f0:	0207a023          	sw	zero,32(a5)
    800005f4:	fe843783          	ld	a5,-24(s0)
    800005f8:	fd843703          	ld	a4,-40(s0)
    800005fc:	00e7b823          	sd	a4,16(a5)
    80000600:	fe843783          	ld	a5,-24(s0)
    80000604:	00001717          	auipc	a4,0x1
    80000608:	c4c70713          	addi	a4,a4,-948 # 80001250 <XIic_StubHandler>
    8000060c:	06e7b423          	sd	a4,104(a5)
    80000610:	fe843783          	ld	a5,-24(s0)
    80000614:	0207bc23          	sd	zero,56(a5)
    80000618:	fe843783          	ld	a5,-24(s0)
    8000061c:	00001717          	auipc	a4,0x1
    80000620:	c3470713          	addi	a4,a4,-972 # 80001250 <XIic_StubHandler>
    80000624:	06e7bc23          	sd	a4,120(a5)
    80000628:	fe843783          	ld	a5,-24(s0)
    8000062c:	0207b823          	sd	zero,48(a5)
    80000630:	fe843783          	ld	a5,-24(s0)
    80000634:	00001717          	auipc	a4,0x1
    80000638:	c6c70713          	addi	a4,a4,-916 # 800012a0 <XIic_StubStatusHandler>
    8000063c:	04e7bc23          	sd	a4,88(a5)
    80000640:	fe043783          	ld	a5,-32(s0)
    80000644:	0107a703          	lw	a4,16(a5)
    80000648:	fe843783          	ld	a5,-24(s0)
    8000064c:	00e7ac23          	sw	a4,24(a5)
    80000650:	fe843783          	ld	a5,-24(s0)
    80000654:	11111737          	lui	a4,0x11111
    80000658:	1117071b          	addiw	a4,a4,273
    8000065c:	00e7ae23          	sw	a4,28(a5)
    80000660:	fe843783          	ld	a5,-24(s0)
    80000664:	0207a423          	sw	zero,40(a5)
    80000668:	fe843783          	ld	a5,-24(s0)
    8000066c:	0407a623          	sw	zero,76(a5)
    80000670:	fe043783          	ld	a5,-32(s0)
    80000674:	0147c703          	lbu	a4,20(a5)
    80000678:	fe843783          	ld	a5,-24(s0)
    8000067c:	04e78823          	sb	a4,80(a5)
    80000680:	fe843783          	ld	a5,-24(s0)
    80000684:	0807a423          	sw	zero,136(a5)
    80000688:	fe843783          	ld	a5,-24(s0)
    8000068c:	0807a623          	sw	zero,140(a5)
    80000690:	fe843503          	ld	a0,-24(s0)
    80000694:	30c000ef          	jal	ra,800009a0 <XIic_Reset>
    80000698:	fe843503          	ld	a0,-24(s0)
    8000069c:	045060ef          	jal	ra,80006ee0 <XIic_ClearStats>
    800006a0:	00000793          	li	a5,0
    800006a4:	00078513          	mv	a0,a5
    800006a8:	02813083          	ld	ra,40(sp)
    800006ac:	02013403          	ld	s0,32(sp)
    800006b0:	03010113          	addi	sp,sp,48
    800006b4:	00008067          	ret

00000000800006b8 <XIic_Start>:
    800006b8:	fd010113          	addi	sp,sp,-48
    800006bc:	02113423          	sd	ra,40(sp)
    800006c0:	02813023          	sd	s0,32(sp)
    800006c4:	00913c23          	sd	s1,24(sp)
    800006c8:	03010413          	addi	s0,sp,48
    800006cc:	fca43c23          	sd	a0,-40(s0)
    800006d0:	fd843783          	ld	a5,-40(s0)
    800006d4:	02078663          	beqz	a5,80000700 <XIic_Start+0x48>
    800006d8:	00007797          	auipc	a5,0x7
    800006dc:	b6478793          	addi	a5,a5,-1180 # 8000723c <Xil_AssertStatus>
    800006e0:	0007a023          	sw	zero,0(a5)
    800006e4:	fd843783          	ld	a5,-40(s0)
    800006e8:	01c7a783          	lw	a5,28(a5)
    800006ec:	00078713          	mv	a4,a5
    800006f0:	111117b7          	lui	a5,0x11111
    800006f4:	11178793          	addi	a5,a5,273 # 11111111 <_start-0x6eeeeef7>
    800006f8:	16f71463          	bne	a4,a5,80000860 <XIic_Start+0x1a8>
    800006fc:	02c0006f          	j	80000728 <XIic_Start+0x70>
    80000700:	0da00593          	li	a1,218
    80000704:	00007517          	auipc	a0,0x7
    80000708:	9bc50513          	addi	a0,a0,-1604 # 800070c0 <Xil_AssertSetCallback+0x8c>
    8000070c:	0b9060ef          	jal	ra,80006fc4 <Xil_Assert>
    80000710:	00007797          	auipc	a5,0x7
    80000714:	b2c78793          	addi	a5,a5,-1236 # 8000723c <Xil_AssertStatus>
    80000718:	00100713          	li	a4,1
    8000071c:	00e7a023          	sw	a4,0(a5)
    80000720:	00000793          	li	a5,0
    80000724:	1600006f          	j	80000884 <XIic_Start+0x1cc>
    80000728:	00007797          	auipc	a5,0x7
    8000072c:	b1478793          	addi	a5,a5,-1260 # 8000723c <Xil_AssertStatus>
    80000730:	0007a023          	sw	zero,0(a5)
    80000734:	fd843783          	ld	a5,-40(s0)
    80000738:	0107b783          	ld	a5,16(a5)
    8000073c:	02878793          	addi	a5,a5,40
    80000740:	00000593          	li	a1,0
    80000744:	00078513          	mv	a0,a5
    80000748:	de5ff0ef          	jal	ra,8000052c <Xil_Out32>
    8000074c:	fd843783          	ld	a5,-40(s0)
    80000750:	0107b783          	ld	a5,16(a5)
    80000754:	02078493          	addi	s1,a5,32
    80000758:	fd843783          	ld	a5,-40(s0)
    8000075c:	0107b783          	ld	a5,16(a5)
    80000760:	02078793          	addi	a5,a5,32
    80000764:	00078513          	mv	a0,a5
    80000768:	d99ff0ef          	jal	ra,80000500 <Xil_In32>
    8000076c:	00050793          	mv	a5,a0
    80000770:	0007879b          	sext.w	a5,a5
    80000774:	00078593          	mv	a1,a5
    80000778:	00048513          	mv	a0,s1
    8000077c:	db1ff0ef          	jal	ra,8000052c <Xil_Out32>
    80000780:	fd843783          	ld	a5,-40(s0)
    80000784:	0107b783          	ld	a5,16(a5)
    80000788:	10078793          	addi	a5,a5,256
    8000078c:	00100593          	li	a1,1
    80000790:	00078513          	mv	a0,a5
    80000794:	d99ff0ef          	jal	ra,8000052c <Xil_Out32>
    80000798:	fd843783          	ld	a5,-40(s0)
    8000079c:	0107b783          	ld	a5,16(a5)
    800007a0:	12078793          	addi	a5,a5,288
    800007a4:	00000593          	li	a1,0
    800007a8:	00078513          	mv	a0,a5
    800007ac:	d81ff0ef          	jal	ra,8000052c <Xil_Out32>
    800007b0:	fd843783          	ld	a5,-40(s0)
    800007b4:	0107b783          	ld	a5,16(a5)
    800007b8:	02078493          	addi	s1,a5,32
    800007bc:	fd843783          	ld	a5,-40(s0)
    800007c0:	0107b783          	ld	a5,16(a5)
    800007c4:	02078793          	addi	a5,a5,32
    800007c8:	00078513          	mv	a0,a5
    800007cc:	d35ff0ef          	jal	ra,80000500 <Xil_In32>
    800007d0:	00050793          	mv	a5,a0
    800007d4:	0007879b          	sext.w	a5,a5
    800007d8:	0217f793          	andi	a5,a5,33
    800007dc:	0007879b          	sext.w	a5,a5
    800007e0:	00078593          	mv	a1,a5
    800007e4:	00048513          	mv	a0,s1
    800007e8:	d45ff0ef          	jal	ra,8000052c <Xil_Out32>
    800007ec:	fd843783          	ld	a5,-40(s0)
    800007f0:	0107b783          	ld	a5,16(a5)
    800007f4:	02878493          	addi	s1,a5,40
    800007f8:	fd843783          	ld	a5,-40(s0)
    800007fc:	0107b783          	ld	a5,16(a5)
    80000800:	02878793          	addi	a5,a5,40
    80000804:	00078513          	mv	a0,a5
    80000808:	cf9ff0ef          	jal	ra,80000500 <Xil_In32>
    8000080c:	00050793          	mv	a5,a0
    80000810:	0007879b          	sext.w	a5,a5
    80000814:	0217e793          	ori	a5,a5,33
    80000818:	0007879b          	sext.w	a5,a5
    8000081c:	00078593          	mv	a1,a5
    80000820:	00048513          	mv	a0,s1
    80000824:	d09ff0ef          	jal	ra,8000052c <Xil_Out32>
    80000828:	fd843783          	ld	a5,-40(s0)
    8000082c:	22222737          	lui	a4,0x22222
    80000830:	2227071b          	addiw	a4,a4,546
    80000834:	02e7a023          	sw	a4,32(a5)
    80000838:	fd843783          	ld	a5,-40(s0)
    8000083c:	0807a423          	sw	zero,136(a5)
    80000840:	fd843783          	ld	a5,-40(s0)
    80000844:	0107b783          	ld	a5,16(a5)
    80000848:	01c78793          	addi	a5,a5,28
    8000084c:	800005b7          	lui	a1,0x80000
    80000850:	00078513          	mv	a0,a5
    80000854:	cd9ff0ef          	jal	ra,8000052c <Xil_Out32>
    80000858:	00000793          	li	a5,0
    8000085c:	0280006f          	j	80000884 <XIic_Start+0x1cc>
    80000860:	0db00593          	li	a1,219
    80000864:	00007517          	auipc	a0,0x7
    80000868:	85c50513          	addi	a0,a0,-1956 # 800070c0 <Xil_AssertSetCallback+0x8c>
    8000086c:	758060ef          	jal	ra,80006fc4 <Xil_Assert>
    80000870:	00007797          	auipc	a5,0x7
    80000874:	9cc78793          	addi	a5,a5,-1588 # 8000723c <Xil_AssertStatus>
    80000878:	00100713          	li	a4,1
    8000087c:	00e7a023          	sw	a4,0(a5)
    80000880:	00000793          	li	a5,0
    80000884:	00078513          	mv	a0,a5
    80000888:	02813083          	ld	ra,40(sp)
    8000088c:	02013403          	ld	s0,32(sp)
    80000890:	01813483          	ld	s1,24(sp)
    80000894:	03010113          	addi	sp,sp,48
    80000898:	00008067          	ret

000000008000089c <XIic_Stop>:
    8000089c:	fd010113          	addi	sp,sp,-48
    800008a0:	02113423          	sd	ra,40(sp)
    800008a4:	02813023          	sd	s0,32(sp)
    800008a8:	03010413          	addi	s0,sp,48
    800008ac:	fca43c23          	sd	a0,-40(s0)
    800008b0:	fd843783          	ld	a5,-40(s0)
    800008b4:	06078a63          	beqz	a5,80000928 <XIic_Stop+0x8c>
    800008b8:	00007797          	auipc	a5,0x7
    800008bc:	98478793          	addi	a5,a5,-1660 # 8000723c <Xil_AssertStatus>
    800008c0:	0007a023          	sw	zero,0(a5)
    800008c4:	fd843783          	ld	a5,-40(s0)
    800008c8:	0107b783          	ld	a5,16(a5)
    800008cc:	01c78793          	addi	a5,a5,28
    800008d0:	00000593          	li	a1,0
    800008d4:	00078513          	mv	a0,a5
    800008d8:	c55ff0ef          	jal	ra,8000052c <Xil_Out32>
    800008dc:	fd843783          	ld	a5,-40(s0)
    800008e0:	0107b783          	ld	a5,16(a5)
    800008e4:	10078793          	addi	a5,a5,256
    800008e8:	00078513          	mv	a0,a5
    800008ec:	c15ff0ef          	jal	ra,80000500 <Xil_In32>
    800008f0:	00050793          	mv	a5,a0
    800008f4:	fef42623          	sw	a5,-20(s0)
    800008f8:	fd843783          	ld	a5,-40(s0)
    800008fc:	0107b783          	ld	a5,16(a5)
    80000900:	10478793          	addi	a5,a5,260
    80000904:	00078513          	mv	a0,a5
    80000908:	bf9ff0ef          	jal	ra,80000500 <Xil_In32>
    8000090c:	00050793          	mv	a5,a0
    80000910:	fef42423          	sw	a5,-24(s0)
    80000914:	fec42783          	lw	a5,-20(s0)
    80000918:	0047f793          	andi	a5,a5,4
    8000091c:	0007879b          	sext.w	a5,a5
    80000920:	04079063          	bnez	a5,80000960 <XIic_Stop+0xc4>
    80000924:	02c0006f          	j	80000950 <XIic_Stop+0xb4>
    80000928:	12400593          	li	a1,292
    8000092c:	00006517          	auipc	a0,0x6
    80000930:	79450513          	addi	a0,a0,1940 # 800070c0 <Xil_AssertSetCallback+0x8c>
    80000934:	690060ef          	jal	ra,80006fc4 <Xil_Assert>
    80000938:	00007797          	auipc	a5,0x7
    8000093c:	90478793          	addi	a5,a5,-1788 # 8000723c <Xil_AssertStatus>
    80000940:	00100713          	li	a4,1
    80000944:	00e7a023          	sw	a4,0(a5)
    80000948:	00000793          	li	a5,0
    8000094c:	0400006f          	j	8000098c <XIic_Stop+0xf0>
    80000950:	fe842783          	lw	a5,-24(s0)
    80000954:	0027f793          	andi	a5,a5,2
    80000958:	0007879b          	sext.w	a5,a5
    8000095c:	02078263          	beqz	a5,80000980 <XIic_Stop+0xe4>
    80000960:	fd843783          	ld	a5,-40(s0)
    80000964:	0107b783          	ld	a5,16(a5)
    80000968:	01c78793          	addi	a5,a5,28
    8000096c:	800005b7          	lui	a1,0x80000
    80000970:	00078513          	mv	a0,a5
    80000974:	bb9ff0ef          	jal	ra,8000052c <Xil_Out32>
    80000978:	43500793          	li	a5,1077
    8000097c:	0100006f          	j	8000098c <XIic_Stop+0xf0>
    80000980:	fd843783          	ld	a5,-40(s0)
    80000984:	0207a023          	sw	zero,32(a5)
    80000988:	00000793          	li	a5,0
    8000098c:	00078513          	mv	a0,a5
    80000990:	02813083          	ld	ra,40(sp)
    80000994:	02013403          	ld	s0,32(sp)
    80000998:	03010113          	addi	sp,sp,48
    8000099c:	00008067          	ret

00000000800009a0 <XIic_Reset>:
    800009a0:	fe010113          	addi	sp,sp,-32
    800009a4:	00113c23          	sd	ra,24(sp)
    800009a8:	00813823          	sd	s0,16(sp)
    800009ac:	02010413          	addi	s0,sp,32
    800009b0:	fea43423          	sd	a0,-24(s0)
    800009b4:	fe843783          	ld	a5,-24(s0)
    800009b8:	02078663          	beqz	a5,800009e4 <XIic_Reset+0x44>
    800009bc:	00007797          	auipc	a5,0x7
    800009c0:	88078793          	addi	a5,a5,-1920 # 8000723c <Xil_AssertStatus>
    800009c4:	0007a023          	sw	zero,0(a5)
    800009c8:	fe843783          	ld	a5,-24(s0)
    800009cc:	01c7a783          	lw	a5,28(a5)
    800009d0:	00078713          	mv	a4,a5
    800009d4:	111117b7          	lui	a5,0x11111
    800009d8:	11178793          	addi	a5,a5,273 # 11111111 <_start-0x6eeeeef7>
    800009dc:	04f71a63          	bne	a4,a5,80000a30 <XIic_Reset+0x90>
    800009e0:	0280006f          	j	80000a08 <XIic_Reset+0x68>
    800009e4:	15000593          	li	a1,336
    800009e8:	00006517          	auipc	a0,0x6
    800009ec:	6d850513          	addi	a0,a0,1752 # 800070c0 <Xil_AssertSetCallback+0x8c>
    800009f0:	5d4060ef          	jal	ra,80006fc4 <Xil_Assert>
    800009f4:	00007797          	auipc	a5,0x7
    800009f8:	84878793          	addi	a5,a5,-1976 # 8000723c <Xil_AssertStatus>
    800009fc:	00100713          	li	a4,1
    80000a00:	00e7a023          	sw	a4,0(a5)
    80000a04:	0500006f          	j	80000a54 <XIic_Reset+0xb4>
    80000a08:	00007797          	auipc	a5,0x7
    80000a0c:	83478793          	addi	a5,a5,-1996 # 8000723c <Xil_AssertStatus>
    80000a10:	0007a023          	sw	zero,0(a5)
    80000a14:	fe843783          	ld	a5,-24(s0)
    80000a18:	0107b783          	ld	a5,16(a5)
    80000a1c:	04078793          	addi	a5,a5,64
    80000a20:	00a00593          	li	a1,10
    80000a24:	00078513          	mv	a0,a5
    80000a28:	b05ff0ef          	jal	ra,8000052c <Xil_Out32>
    80000a2c:	0280006f          	j	80000a54 <XIic_Reset+0xb4>
    80000a30:	15100593          	li	a1,337
    80000a34:	00006517          	auipc	a0,0x6
    80000a38:	68c50513          	addi	a0,a0,1676 # 800070c0 <Xil_AssertSetCallback+0x8c>
    80000a3c:	588060ef          	jal	ra,80006fc4 <Xil_Assert>
    80000a40:	00006797          	auipc	a5,0x6
    80000a44:	7fc78793          	addi	a5,a5,2044 # 8000723c <Xil_AssertStatus>
    80000a48:	00100713          	li	a4,1
    80000a4c:	00e7a023          	sw	a4,0(a5)
    80000a50:	00000013          	nop
    80000a54:	01813083          	ld	ra,24(sp)
    80000a58:	01013403          	ld	s0,16(sp)
    80000a5c:	02010113          	addi	sp,sp,32
    80000a60:	00008067          	ret

0000000080000a64 <XIic_SetAddress>:
    80000a64:	fd010113          	addi	sp,sp,-48
    80000a68:	02113423          	sd	ra,40(sp)
    80000a6c:	02813023          	sd	s0,32(sp)
    80000a70:	03010413          	addi	s0,sp,48
    80000a74:	fca43c23          	sd	a0,-40(s0)
    80000a78:	00058793          	mv	a5,a1
    80000a7c:	00060713          	mv	a4,a2
    80000a80:	fcf42a23          	sw	a5,-44(s0)
    80000a84:	00070793          	mv	a5,a4
    80000a88:	fcf42823          	sw	a5,-48(s0)
    80000a8c:	fd843783          	ld	a5,-40(s0)
    80000a90:	02078263          	beqz	a5,80000ab4 <XIic_SetAddress+0x50>
    80000a94:	00006797          	auipc	a5,0x6
    80000a98:	7a878793          	addi	a5,a5,1960 # 8000723c <Xil_AssertStatus>
    80000a9c:	0007a023          	sw	zero,0(a5)
    80000aa0:	fd042783          	lw	a5,-48(s0)
    80000aa4:	0007871b          	sext.w	a4,a5
    80000aa8:	3fe00793          	li	a5,1022
    80000aac:	04e7c863          	blt	a5,a4,80000afc <XIic_SetAddress+0x98>
    80000ab0:	02c0006f          	j	80000adc <XIic_SetAddress+0x78>
    80000ab4:	18a00593          	li	a1,394
    80000ab8:	00006517          	auipc	a0,0x6
    80000abc:	60850513          	addi	a0,a0,1544 # 800070c0 <Xil_AssertSetCallback+0x8c>
    80000ac0:	504060ef          	jal	ra,80006fc4 <Xil_Assert>
    80000ac4:	00006797          	auipc	a5,0x6
    80000ac8:	77878793          	addi	a5,a5,1912 # 8000723c <Xil_AssertStatus>
    80000acc:	00100713          	li	a4,1
    80000ad0:	00e7a023          	sw	a4,0(a5)
    80000ad4:	00000793          	li	a5,0
    80000ad8:	0f80006f          	j	80000bd0 <XIic_SetAddress+0x16c>
    80000adc:	00006797          	auipc	a5,0x6
    80000ae0:	76078793          	addi	a5,a5,1888 # 8000723c <Xil_AssertStatus>
    80000ae4:	0007a023          	sw	zero,0(a5)
    80000ae8:	fd442783          	lw	a5,-44(s0)
    80000aec:	0007871b          	sext.w	a4,a5
    80000af0:	00200793          	li	a5,2
    80000af4:	0af71a63          	bne	a4,a5,80000ba8 <XIic_SetAddress+0x144>
    80000af8:	02c0006f          	j	80000b24 <XIic_SetAddress+0xc0>
    80000afc:	18b00593          	li	a1,395
    80000b00:	00006517          	auipc	a0,0x6
    80000b04:	5c050513          	addi	a0,a0,1472 # 800070c0 <Xil_AssertSetCallback+0x8c>
    80000b08:	4bc060ef          	jal	ra,80006fc4 <Xil_Assert>
    80000b0c:	00006797          	auipc	a5,0x6
    80000b10:	73078793          	addi	a5,a5,1840 # 8000723c <Xil_AssertStatus>
    80000b14:	00100713          	li	a4,1
    80000b18:	00e7a023          	sw	a4,0(a5)
    80000b1c:	00000793          	li	a5,0
    80000b20:	0b00006f          	j	80000bd0 <XIic_SetAddress+0x16c>
    80000b24:	fd042783          	lw	a5,-48(s0)
    80000b28:	0017979b          	slliw	a5,a5,0x1
    80000b2c:	0007879b          	sext.w	a5,a5
    80000b30:	0007879b          	sext.w	a5,a5
    80000b34:	0ff7f793          	andi	a5,a5,255
    80000b38:	fef42623          	sw	a5,-20(s0)
    80000b3c:	fd843783          	ld	a5,-40(s0)
    80000b40:	0107b783          	ld	a5,16(a5)
    80000b44:	11078793          	addi	a5,a5,272
    80000b48:	fec42703          	lw	a4,-20(s0)
    80000b4c:	00070593          	mv	a1,a4
    80000b50:	00078513          	mv	a0,a5
    80000b54:	9d9ff0ef          	jal	ra,8000052c <Xil_Out32>
    80000b58:	fd843783          	ld	a5,-40(s0)
    80000b5c:	0187a783          	lw	a5,24(a5)
    80000b60:	00078713          	mv	a4,a5
    80000b64:	00100793          	li	a5,1
    80000b68:	02f71c63          	bne	a4,a5,80000ba0 <XIic_SetAddress+0x13c>
    80000b6c:	fd042783          	lw	a5,-48(s0)
    80000b70:	4077d79b          	sraiw	a5,a5,0x7
    80000b74:	0007879b          	sext.w	a5,a5
    80000b78:	0007879b          	sext.w	a5,a5
    80000b7c:	0077f793          	andi	a5,a5,7
    80000b80:	fef42623          	sw	a5,-20(s0)
    80000b84:	fd843783          	ld	a5,-40(s0)
    80000b88:	0107b783          	ld	a5,16(a5)
    80000b8c:	11c78793          	addi	a5,a5,284
    80000b90:	fec42703          	lw	a4,-20(s0)
    80000b94:	00070593          	mv	a1,a4
    80000b98:	00078513          	mv	a0,a5
    80000b9c:	991ff0ef          	jal	ra,8000052c <Xil_Out32>
    80000ba0:	00000793          	li	a5,0
    80000ba4:	02c0006f          	j	80000bd0 <XIic_SetAddress+0x16c>
    80000ba8:	fd442783          	lw	a5,-44(s0)
    80000bac:	0007871b          	sext.w	a4,a5
    80000bb0:	00100793          	li	a5,1
    80000bb4:	00f71c63          	bne	a4,a5,80000bcc <XIic_SetAddress+0x168>
    80000bb8:	fd843783          	ld	a5,-40(s0)
    80000bbc:	fd042703          	lw	a4,-48(s0)
    80000bc0:	02e7a223          	sw	a4,36(a5)
    80000bc4:	00000793          	li	a5,0
    80000bc8:	0080006f          	j	80000bd0 <XIic_SetAddress+0x16c>
    80000bcc:	00f00793          	li	a5,15
    80000bd0:	00078513          	mv	a0,a5
    80000bd4:	02813083          	ld	ra,40(sp)
    80000bd8:	02013403          	ld	s0,32(sp)
    80000bdc:	03010113          	addi	sp,sp,48
    80000be0:	00008067          	ret

0000000080000be4 <XIic_GetAddress>:
    80000be4:	fd010113          	addi	sp,sp,-48
    80000be8:	02113423          	sd	ra,40(sp)
    80000bec:	02813023          	sd	s0,32(sp)
    80000bf0:	03010413          	addi	s0,sp,48
    80000bf4:	fca43c23          	sd	a0,-40(s0)
    80000bf8:	00058793          	mv	a5,a1
    80000bfc:	fcf42a23          	sw	a5,-44(s0)
    80000c00:	fe041723          	sh	zero,-18(s0)
    80000c04:	fd843783          	ld	a5,-40(s0)
    80000c08:	02078263          	beqz	a5,80000c2c <XIic_GetAddress+0x48>
    80000c0c:	00006797          	auipc	a5,0x6
    80000c10:	63078793          	addi	a5,a5,1584 # 8000723c <Xil_AssertStatus>
    80000c14:	0007a023          	sw	zero,0(a5)
    80000c18:	fd442783          	lw	a5,-44(s0)
    80000c1c:	0007871b          	sext.w	a4,a5
    80000c20:	00200793          	li	a5,2
    80000c24:	0cf71063          	bne	a4,a5,80000ce4 <XIic_GetAddress+0x100>
    80000c28:	02c0006f          	j	80000c54 <XIic_GetAddress+0x70>
    80000c2c:	1ce00593          	li	a1,462
    80000c30:	00006517          	auipc	a0,0x6
    80000c34:	49050513          	addi	a0,a0,1168 # 800070c0 <Xil_AssertSetCallback+0x8c>
    80000c38:	38c060ef          	jal	ra,80006fc4 <Xil_Assert>
    80000c3c:	00006797          	auipc	a5,0x6
    80000c40:	60078793          	addi	a5,a5,1536 # 8000723c <Xil_AssertStatus>
    80000c44:	00100713          	li	a4,1
    80000c48:	00e7a023          	sw	a4,0(a5)
    80000c4c:	00000793          	li	a5,0
    80000c50:	0a40006f          	j	80000cf4 <XIic_GetAddress+0x110>
    80000c54:	fd843783          	ld	a5,-40(s0)
    80000c58:	0107b783          	ld	a5,16(a5)
    80000c5c:	11078793          	addi	a5,a5,272
    80000c60:	00078513          	mv	a0,a5
    80000c64:	89dff0ef          	jal	ra,80000500 <Xil_In32>
    80000c68:	00050793          	mv	a5,a0
    80000c6c:	0007879b          	sext.w	a5,a5
    80000c70:	fef406a3          	sb	a5,-19(s0)
    80000c74:	fd843783          	ld	a5,-40(s0)
    80000c78:	0187a783          	lw	a5,24(a5)
    80000c7c:	00078713          	mv	a4,a5
    80000c80:	00100793          	li	a5,1
    80000c84:	02f71263          	bne	a4,a5,80000ca8 <XIic_GetAddress+0xc4>
    80000c88:	fd843783          	ld	a5,-40(s0)
    80000c8c:	0107b783          	ld	a5,16(a5)
    80000c90:	11c78793          	addi	a5,a5,284
    80000c94:	00078513          	mv	a0,a5
    80000c98:	869ff0ef          	jal	ra,80000500 <Xil_In32>
    80000c9c:	00050793          	mv	a5,a0
    80000ca0:	0007879b          	sext.w	a5,a5
    80000ca4:	fef41723          	sh	a5,-18(s0)
    80000ca8:	fee45783          	lhu	a5,-18(s0)
    80000cac:	0007879b          	sext.w	a5,a5
    80000cb0:	0087979b          	slliw	a5,a5,0x8
    80000cb4:	0007879b          	sext.w	a5,a5
    80000cb8:	0107971b          	slliw	a4,a5,0x10
    80000cbc:	4107571b          	sraiw	a4,a4,0x10
    80000cc0:	fed44783          	lbu	a5,-19(s0)
    80000cc4:	0107979b          	slliw	a5,a5,0x10
    80000cc8:	4107d79b          	sraiw	a5,a5,0x10
    80000ccc:	00f767b3          	or	a5,a4,a5
    80000cd0:	0107979b          	slliw	a5,a5,0x10
    80000cd4:	4107d79b          	sraiw	a5,a5,0x10
    80000cd8:	03079793          	slli	a5,a5,0x30
    80000cdc:	0307d793          	srli	a5,a5,0x30
    80000ce0:	0140006f          	j	80000cf4 <XIic_GetAddress+0x110>
    80000ce4:	fd843783          	ld	a5,-40(s0)
    80000ce8:	0247a783          	lw	a5,36(a5)
    80000cec:	03079793          	slli	a5,a5,0x30
    80000cf0:	0307d793          	srli	a5,a5,0x30
    80000cf4:	00078513          	mv	a0,a5
    80000cf8:	02813083          	ld	ra,40(sp)
    80000cfc:	02013403          	ld	s0,32(sp)
    80000d00:	03010113          	addi	sp,sp,48
    80000d04:	00008067          	ret

0000000080000d08 <XIic_SetGpOutput>:
    80000d08:	fe010113          	addi	sp,sp,-32
    80000d0c:	00113c23          	sd	ra,24(sp)
    80000d10:	00813823          	sd	s0,16(sp)
    80000d14:	02010413          	addi	s0,sp,32
    80000d18:	fea43423          	sd	a0,-24(s0)
    80000d1c:	00058793          	mv	a5,a1
    80000d20:	fef403a3          	sb	a5,-25(s0)
    80000d24:	fe843783          	ld	a5,-24(s0)
    80000d28:	02078063          	beqz	a5,80000d48 <XIic_SetGpOutput+0x40>
    80000d2c:	00006797          	auipc	a5,0x6
    80000d30:	51078793          	addi	a5,a5,1296 # 8000723c <Xil_AssertStatus>
    80000d34:	0007a023          	sw	zero,0(a5)
    80000d38:	fe843783          	ld	a5,-24(s0)
    80000d3c:	0507c783          	lbu	a5,80(a5)
    80000d40:	04078c63          	beqz	a5,80000d98 <XIic_SetGpOutput+0x90>
    80000d44:	02c0006f          	j	80000d70 <XIic_SetGpOutput+0x68>
    80000d48:	1fc00593          	li	a1,508
    80000d4c:	00006517          	auipc	a0,0x6
    80000d50:	37450513          	addi	a0,a0,884 # 800070c0 <Xil_AssertSetCallback+0x8c>
    80000d54:	270060ef          	jal	ra,80006fc4 <Xil_Assert>
    80000d58:	00006797          	auipc	a5,0x6
    80000d5c:	4e478793          	addi	a5,a5,1252 # 8000723c <Xil_AssertStatus>
    80000d60:	00100713          	li	a4,1
    80000d64:	00e7a023          	sw	a4,0(a5)
    80000d68:	00000793          	li	a5,0
    80000d6c:	0300006f          	j	80000d9c <XIic_SetGpOutput+0x94>
    80000d70:	fe843783          	ld	a5,-24(s0)
    80000d74:	0107b783          	ld	a5,16(a5)
    80000d78:	12478793          	addi	a5,a5,292
    80000d7c:	fe744703          	lbu	a4,-25(s0)
    80000d80:	0007071b          	sext.w	a4,a4
    80000d84:	00070593          	mv	a1,a4
    80000d88:	00078513          	mv	a0,a5
    80000d8c:	fa0ff0ef          	jal	ra,8000052c <Xil_Out32>
    80000d90:	00000793          	li	a5,0
    80000d94:	0080006f          	j	80000d9c <XIic_SetGpOutput+0x94>
    80000d98:	01300793          	li	a5,19
    80000d9c:	00078513          	mv	a0,a5
    80000da0:	01813083          	ld	ra,24(sp)
    80000da4:	01013403          	ld	s0,16(sp)
    80000da8:	02010113          	addi	sp,sp,32
    80000dac:	00008067          	ret

0000000080000db0 <XIic_GetGpOutput>:
    80000db0:	fe010113          	addi	sp,sp,-32
    80000db4:	00113c23          	sd	ra,24(sp)
    80000db8:	00813823          	sd	s0,16(sp)
    80000dbc:	02010413          	addi	s0,sp,32
    80000dc0:	fea43423          	sd	a0,-24(s0)
    80000dc4:	feb43023          	sd	a1,-32(s0)
    80000dc8:	fe843783          	ld	a5,-24(s0)
    80000dcc:	00078e63          	beqz	a5,80000de8 <XIic_GetGpOutput+0x38>
    80000dd0:	00006797          	auipc	a5,0x6
    80000dd4:	46c78793          	addi	a5,a5,1132 # 8000723c <Xil_AssertStatus>
    80000dd8:	0007a023          	sw	zero,0(a5)
    80000ddc:	fe043783          	ld	a5,-32(s0)
    80000de0:	04078663          	beqz	a5,80000e2c <XIic_GetGpOutput+0x7c>
    80000de4:	02c0006f          	j	80000e10 <XIic_GetGpOutput+0x60>
    80000de8:	22300593          	li	a1,547
    80000dec:	00006517          	auipc	a0,0x6
    80000df0:	2d450513          	addi	a0,a0,724 # 800070c0 <Xil_AssertSetCallback+0x8c>
    80000df4:	1d0060ef          	jal	ra,80006fc4 <Xil_Assert>
    80000df8:	00006797          	auipc	a5,0x6
    80000dfc:	44478793          	addi	a5,a5,1092 # 8000723c <Xil_AssertStatus>
    80000e00:	00100713          	li	a4,1
    80000e04:	00e7a023          	sw	a4,0(a5)
    80000e08:	00000793          	li	a5,0
    80000e0c:	07c0006f          	j	80000e88 <XIic_GetGpOutput+0xd8>
    80000e10:	00006797          	auipc	a5,0x6
    80000e14:	42c78793          	addi	a5,a5,1068 # 8000723c <Xil_AssertStatus>
    80000e18:	0007a023          	sw	zero,0(a5)
    80000e1c:	fe843783          	ld	a5,-24(s0)
    80000e20:	0507c783          	lbu	a5,80(a5)
    80000e24:	06078063          	beqz	a5,80000e84 <XIic_GetGpOutput+0xd4>
    80000e28:	02c0006f          	j	80000e54 <XIic_GetGpOutput+0xa4>
    80000e2c:	22400593          	li	a1,548
    80000e30:	00006517          	auipc	a0,0x6
    80000e34:	29050513          	addi	a0,a0,656 # 800070c0 <Xil_AssertSetCallback+0x8c>
    80000e38:	18c060ef          	jal	ra,80006fc4 <Xil_Assert>
    80000e3c:	00006797          	auipc	a5,0x6
    80000e40:	40078793          	addi	a5,a5,1024 # 8000723c <Xil_AssertStatus>
    80000e44:	00100713          	li	a4,1
    80000e48:	00e7a023          	sw	a4,0(a5)
    80000e4c:	00000793          	li	a5,0
    80000e50:	0380006f          	j	80000e88 <XIic_GetGpOutput+0xd8>
    80000e54:	fe843783          	ld	a5,-24(s0)
    80000e58:	0107b783          	ld	a5,16(a5)
    80000e5c:	12478793          	addi	a5,a5,292
    80000e60:	00078513          	mv	a0,a5
    80000e64:	e9cff0ef          	jal	ra,80000500 <Xil_In32>
    80000e68:	00050793          	mv	a5,a0
    80000e6c:	0007879b          	sext.w	a5,a5
    80000e70:	0ff7f713          	andi	a4,a5,255
    80000e74:	fe043783          	ld	a5,-32(s0)
    80000e78:	00e78023          	sb	a4,0(a5)
    80000e7c:	00000793          	li	a5,0
    80000e80:	0080006f          	j	80000e88 <XIic_GetGpOutput+0xd8>
    80000e84:	01300793          	li	a5,19
    80000e88:	00078513          	mv	a0,a5
    80000e8c:	01813083          	ld	ra,24(sp)
    80000e90:	01013403          	ld	s0,16(sp)
    80000e94:	02010113          	addi	sp,sp,32
    80000e98:	00008067          	ret

0000000080000e9c <XIic_IsSlave>:
    80000e9c:	fe010113          	addi	sp,sp,-32
    80000ea0:	00113c23          	sd	ra,24(sp)
    80000ea4:	00813823          	sd	s0,16(sp)
    80000ea8:	02010413          	addi	s0,sp,32
    80000eac:	fea43423          	sd	a0,-24(s0)
    80000eb0:	fe843783          	ld	a5,-24(s0)
    80000eb4:	02078e63          	beqz	a5,80000ef0 <XIic_IsSlave+0x54>
    80000eb8:	00006797          	auipc	a5,0x6
    80000ebc:	38478793          	addi	a5,a5,900 # 8000723c <Xil_AssertStatus>
    80000ec0:	0007a023          	sw	zero,0(a5)
    80000ec4:	fe843783          	ld	a5,-24(s0)
    80000ec8:	0107b783          	ld	a5,16(a5)
    80000ecc:	10478793          	addi	a5,a5,260
    80000ed0:	00078513          	mv	a0,a5
    80000ed4:	e2cff0ef          	jal	ra,80000500 <Xil_In32>
    80000ed8:	00050793          	mv	a5,a0
    80000edc:	0007879b          	sext.w	a5,a5
    80000ee0:	0027f793          	andi	a5,a5,2
    80000ee4:	0007879b          	sext.w	a5,a5
    80000ee8:	02079c63          	bnez	a5,80000f20 <XIic_IsSlave+0x84>
    80000eec:	02c0006f          	j	80000f18 <XIic_IsSlave+0x7c>
    80000ef0:	24300593          	li	a1,579
    80000ef4:	00006517          	auipc	a0,0x6
    80000ef8:	1cc50513          	addi	a0,a0,460 # 800070c0 <Xil_AssertSetCallback+0x8c>
    80000efc:	0c8060ef          	jal	ra,80006fc4 <Xil_Assert>
    80000f00:	00006797          	auipc	a5,0x6
    80000f04:	33c78793          	addi	a5,a5,828 # 8000723c <Xil_AssertStatus>
    80000f08:	00100713          	li	a4,1
    80000f0c:	00e7a023          	sw	a4,0(a5)
    80000f10:	00000793          	li	a5,0
    80000f14:	0100006f          	j	80000f24 <XIic_IsSlave+0x88>
    80000f18:	00000793          	li	a5,0
    80000f1c:	0080006f          	j	80000f24 <XIic_IsSlave+0x88>
    80000f20:	00100793          	li	a5,1
    80000f24:	00078513          	mv	a0,a5
    80000f28:	01813083          	ld	ra,24(sp)
    80000f2c:	01013403          	ld	s0,16(sp)
    80000f30:	02010113          	addi	sp,sp,32
    80000f34:	00008067          	ret

0000000080000f38 <XIic_SetRecvHandler>:
    80000f38:	fd010113          	addi	sp,sp,-48
    80000f3c:	02113423          	sd	ra,40(sp)
    80000f40:	02813023          	sd	s0,32(sp)
    80000f44:	03010413          	addi	s0,sp,48
    80000f48:	fea43423          	sd	a0,-24(s0)
    80000f4c:	feb43023          	sd	a1,-32(s0)
    80000f50:	fcc43c23          	sd	a2,-40(s0)
    80000f54:	fe843783          	ld	a5,-24(s0)
    80000f58:	02078663          	beqz	a5,80000f84 <XIic_SetRecvHandler+0x4c>
    80000f5c:	00006797          	auipc	a5,0x6
    80000f60:	2e078793          	addi	a5,a5,736 # 8000723c <Xil_AssertStatus>
    80000f64:	0007a023          	sw	zero,0(a5)
    80000f68:	fe843783          	ld	a5,-24(s0)
    80000f6c:	01c7a783          	lw	a5,28(a5)
    80000f70:	00078713          	mv	a4,a5
    80000f74:	111117b7          	lui	a5,0x11111
    80000f78:	11178793          	addi	a5,a5,273 # 11111111 <_start-0x6eeeeef7>
    80000f7c:	04f71263          	bne	a4,a5,80000fc0 <XIic_SetRecvHandler+0x88>
    80000f80:	0280006f          	j	80000fa8 <XIic_SetRecvHandler+0x70>
    80000f84:	26700593          	li	a1,615
    80000f88:	00006517          	auipc	a0,0x6
    80000f8c:	13850513          	addi	a0,a0,312 # 800070c0 <Xil_AssertSetCallback+0x8c>
    80000f90:	034060ef          	jal	ra,80006fc4 <Xil_Assert>
    80000f94:	00006797          	auipc	a5,0x6
    80000f98:	2a878793          	addi	a5,a5,680 # 8000723c <Xil_AssertStatus>
    80000f9c:	00100713          	li	a4,1
    80000fa0:	00e7a023          	sw	a4,0(a5)
    80000fa4:	08c0006f          	j	80001030 <XIic_SetRecvHandler+0xf8>
    80000fa8:	00006797          	auipc	a5,0x6
    80000fac:	29478793          	addi	a5,a5,660 # 8000723c <Xil_AssertStatus>
    80000fb0:	0007a023          	sw	zero,0(a5)
    80000fb4:	fd843783          	ld	a5,-40(s0)
    80000fb8:	04078a63          	beqz	a5,8000100c <XIic_SetRecvHandler+0xd4>
    80000fbc:	0280006f          	j	80000fe4 <XIic_SetRecvHandler+0xac>
    80000fc0:	26800593          	li	a1,616
    80000fc4:	00006517          	auipc	a0,0x6
    80000fc8:	0fc50513          	addi	a0,a0,252 # 800070c0 <Xil_AssertSetCallback+0x8c>
    80000fcc:	7f9050ef          	jal	ra,80006fc4 <Xil_Assert>
    80000fd0:	00006797          	auipc	a5,0x6
    80000fd4:	26c78793          	addi	a5,a5,620 # 8000723c <Xil_AssertStatus>
    80000fd8:	00100713          	li	a4,1
    80000fdc:	00e7a023          	sw	a4,0(a5)
    80000fe0:	0500006f          	j	80001030 <XIic_SetRecvHandler+0xf8>
    80000fe4:	00006797          	auipc	a5,0x6
    80000fe8:	25878793          	addi	a5,a5,600 # 8000723c <Xil_AssertStatus>
    80000fec:	0007a023          	sw	zero,0(a5)
    80000ff0:	fe843783          	ld	a5,-24(s0)
    80000ff4:	fd843703          	ld	a4,-40(s0)
    80000ff8:	06e7b423          	sd	a4,104(a5)
    80000ffc:	fe843783          	ld	a5,-24(s0)
    80001000:	fe043703          	ld	a4,-32(s0)
    80001004:	06e7b823          	sd	a4,112(a5)
    80001008:	0280006f          	j	80001030 <XIic_SetRecvHandler+0xf8>
    8000100c:	26900593          	li	a1,617
    80001010:	00006517          	auipc	a0,0x6
    80001014:	0b050513          	addi	a0,a0,176 # 800070c0 <Xil_AssertSetCallback+0x8c>
    80001018:	7ad050ef          	jal	ra,80006fc4 <Xil_Assert>
    8000101c:	00006797          	auipc	a5,0x6
    80001020:	22078793          	addi	a5,a5,544 # 8000723c <Xil_AssertStatus>
    80001024:	00100713          	li	a4,1
    80001028:	00e7a023          	sw	a4,0(a5)
    8000102c:	00000013          	nop
    80001030:	02813083          	ld	ra,40(sp)
    80001034:	02013403          	ld	s0,32(sp)
    80001038:	03010113          	addi	sp,sp,48
    8000103c:	00008067          	ret

0000000080001040 <XIic_SetSendHandler>:
    80001040:	fd010113          	addi	sp,sp,-48
    80001044:	02113423          	sd	ra,40(sp)
    80001048:	02813023          	sd	s0,32(sp)
    8000104c:	03010413          	addi	s0,sp,48
    80001050:	fea43423          	sd	a0,-24(s0)
    80001054:	feb43023          	sd	a1,-32(s0)
    80001058:	fcc43c23          	sd	a2,-40(s0)
    8000105c:	fe843783          	ld	a5,-24(s0)
    80001060:	02078663          	beqz	a5,8000108c <XIic_SetSendHandler+0x4c>
    80001064:	00006797          	auipc	a5,0x6
    80001068:	1d878793          	addi	a5,a5,472 # 8000723c <Xil_AssertStatus>
    8000106c:	0007a023          	sw	zero,0(a5)
    80001070:	fe843783          	ld	a5,-24(s0)
    80001074:	01c7a783          	lw	a5,28(a5)
    80001078:	00078713          	mv	a4,a5
    8000107c:	111117b7          	lui	a5,0x11111
    80001080:	11178793          	addi	a5,a5,273 # 11111111 <_start-0x6eeeeef7>
    80001084:	04f71263          	bne	a4,a5,800010c8 <XIic_SetSendHandler+0x88>
    80001088:	0280006f          	j	800010b0 <XIic_SetSendHandler+0x70>
    8000108c:	28400593          	li	a1,644
    80001090:	00006517          	auipc	a0,0x6
    80001094:	03050513          	addi	a0,a0,48 # 800070c0 <Xil_AssertSetCallback+0x8c>
    80001098:	72d050ef          	jal	ra,80006fc4 <Xil_Assert>
    8000109c:	00006797          	auipc	a5,0x6
    800010a0:	1a078793          	addi	a5,a5,416 # 8000723c <Xil_AssertStatus>
    800010a4:	00100713          	li	a4,1
    800010a8:	00e7a023          	sw	a4,0(a5)
    800010ac:	08c0006f          	j	80001138 <XIic_SetSendHandler+0xf8>
    800010b0:	00006797          	auipc	a5,0x6
    800010b4:	18c78793          	addi	a5,a5,396 # 8000723c <Xil_AssertStatus>
    800010b8:	0007a023          	sw	zero,0(a5)
    800010bc:	fd843783          	ld	a5,-40(s0)
    800010c0:	04078a63          	beqz	a5,80001114 <XIic_SetSendHandler+0xd4>
    800010c4:	0280006f          	j	800010ec <XIic_SetSendHandler+0xac>
    800010c8:	28500593          	li	a1,645
    800010cc:	00006517          	auipc	a0,0x6
    800010d0:	ff450513          	addi	a0,a0,-12 # 800070c0 <Xil_AssertSetCallback+0x8c>
    800010d4:	6f1050ef          	jal	ra,80006fc4 <Xil_Assert>
    800010d8:	00006797          	auipc	a5,0x6
    800010dc:	16478793          	addi	a5,a5,356 # 8000723c <Xil_AssertStatus>
    800010e0:	00100713          	li	a4,1
    800010e4:	00e7a023          	sw	a4,0(a5)
    800010e8:	0500006f          	j	80001138 <XIic_SetSendHandler+0xf8>
    800010ec:	00006797          	auipc	a5,0x6
    800010f0:	15078793          	addi	a5,a5,336 # 8000723c <Xil_AssertStatus>
    800010f4:	0007a023          	sw	zero,0(a5)
    800010f8:	fe843783          	ld	a5,-24(s0)
    800010fc:	fd843703          	ld	a4,-40(s0)
    80001100:	06e7bc23          	sd	a4,120(a5)
    80001104:	fe843783          	ld	a5,-24(s0)
    80001108:	fe043703          	ld	a4,-32(s0)
    8000110c:	08e7b023          	sd	a4,128(a5)
    80001110:	0280006f          	j	80001138 <XIic_SetSendHandler+0xf8>
    80001114:	28600593          	li	a1,646
    80001118:	00006517          	auipc	a0,0x6
    8000111c:	fa850513          	addi	a0,a0,-88 # 800070c0 <Xil_AssertSetCallback+0x8c>
    80001120:	6a5050ef          	jal	ra,80006fc4 <Xil_Assert>
    80001124:	00006797          	auipc	a5,0x6
    80001128:	11878793          	addi	a5,a5,280 # 8000723c <Xil_AssertStatus>
    8000112c:	00100713          	li	a4,1
    80001130:	00e7a023          	sw	a4,0(a5)
    80001134:	00000013          	nop
    80001138:	02813083          	ld	ra,40(sp)
    8000113c:	02013403          	ld	s0,32(sp)
    80001140:	03010113          	addi	sp,sp,48
    80001144:	00008067          	ret

0000000080001148 <XIic_SetStatusHandler>:
    80001148:	fd010113          	addi	sp,sp,-48
    8000114c:	02113423          	sd	ra,40(sp)
    80001150:	02813023          	sd	s0,32(sp)
    80001154:	03010413          	addi	s0,sp,48
    80001158:	fea43423          	sd	a0,-24(s0)
    8000115c:	feb43023          	sd	a1,-32(s0)
    80001160:	fcc43c23          	sd	a2,-40(s0)
    80001164:	fe843783          	ld	a5,-24(s0)
    80001168:	02078663          	beqz	a5,80001194 <XIic_SetStatusHandler+0x4c>
    8000116c:	00006797          	auipc	a5,0x6
    80001170:	0d078793          	addi	a5,a5,208 # 8000723c <Xil_AssertStatus>
    80001174:	0007a023          	sw	zero,0(a5)
    80001178:	fe843783          	ld	a5,-24(s0)
    8000117c:	01c7a783          	lw	a5,28(a5)
    80001180:	00078713          	mv	a4,a5
    80001184:	111117b7          	lui	a5,0x11111
    80001188:	11178793          	addi	a5,a5,273 # 11111111 <_start-0x6eeeeef7>
    8000118c:	04f71263          	bne	a4,a5,800011d0 <XIic_SetStatusHandler+0x88>
    80001190:	0280006f          	j	800011b8 <XIic_SetStatusHandler+0x70>
    80001194:	2a200593          	li	a1,674
    80001198:	00006517          	auipc	a0,0x6
    8000119c:	f2850513          	addi	a0,a0,-216 # 800070c0 <Xil_AssertSetCallback+0x8c>
    800011a0:	625050ef          	jal	ra,80006fc4 <Xil_Assert>
    800011a4:	00006797          	auipc	a5,0x6
    800011a8:	09878793          	addi	a5,a5,152 # 8000723c <Xil_AssertStatus>
    800011ac:	00100713          	li	a4,1
    800011b0:	00e7a023          	sw	a4,0(a5)
    800011b4:	08c0006f          	j	80001240 <XIic_SetStatusHandler+0xf8>
    800011b8:	00006797          	auipc	a5,0x6
    800011bc:	08478793          	addi	a5,a5,132 # 8000723c <Xil_AssertStatus>
    800011c0:	0007a023          	sw	zero,0(a5)
    800011c4:	fd843783          	ld	a5,-40(s0)
    800011c8:	04078a63          	beqz	a5,8000121c <XIic_SetStatusHandler+0xd4>
    800011cc:	0280006f          	j	800011f4 <XIic_SetStatusHandler+0xac>
    800011d0:	2a300593          	li	a1,675
    800011d4:	00006517          	auipc	a0,0x6
    800011d8:	eec50513          	addi	a0,a0,-276 # 800070c0 <Xil_AssertSetCallback+0x8c>
    800011dc:	5e9050ef          	jal	ra,80006fc4 <Xil_Assert>
    800011e0:	00006797          	auipc	a5,0x6
    800011e4:	05c78793          	addi	a5,a5,92 # 8000723c <Xil_AssertStatus>
    800011e8:	00100713          	li	a4,1
    800011ec:	00e7a023          	sw	a4,0(a5)
    800011f0:	0500006f          	j	80001240 <XIic_SetStatusHandler+0xf8>
    800011f4:	00006797          	auipc	a5,0x6
    800011f8:	04878793          	addi	a5,a5,72 # 8000723c <Xil_AssertStatus>
    800011fc:	0007a023          	sw	zero,0(a5)
    80001200:	fe843783          	ld	a5,-24(s0)
    80001204:	fd843703          	ld	a4,-40(s0)
    80001208:	04e7bc23          	sd	a4,88(a5)
    8000120c:	fe843783          	ld	a5,-24(s0)
    80001210:	fe043703          	ld	a4,-32(s0)
    80001214:	06e7b023          	sd	a4,96(a5)
    80001218:	0280006f          	j	80001240 <XIic_SetStatusHandler+0xf8>
    8000121c:	2a400593          	li	a1,676
    80001220:	00006517          	auipc	a0,0x6
    80001224:	ea050513          	addi	a0,a0,-352 # 800070c0 <Xil_AssertSetCallback+0x8c>
    80001228:	59d050ef          	jal	ra,80006fc4 <Xil_Assert>
    8000122c:	00006797          	auipc	a5,0x6
    80001230:	01078793          	addi	a5,a5,16 # 8000723c <Xil_AssertStatus>
    80001234:	00100713          	li	a4,1
    80001238:	00e7a023          	sw	a4,0(a5)
    8000123c:	00000013          	nop
    80001240:	02813083          	ld	ra,40(sp)
    80001244:	02013403          	ld	s0,32(sp)
    80001248:	03010113          	addi	sp,sp,48
    8000124c:	00008067          	ret

0000000080001250 <XIic_StubHandler>:
    80001250:	fe010113          	addi	sp,sp,-32
    80001254:	00113c23          	sd	ra,24(sp)
    80001258:	00813823          	sd	s0,16(sp)
    8000125c:	02010413          	addi	s0,sp,32
    80001260:	fea43423          	sd	a0,-24(s0)
    80001264:	00058793          	mv	a5,a1
    80001268:	fef42223          	sw	a5,-28(s0)
    8000126c:	2bb00593          	li	a1,699
    80001270:	00006517          	auipc	a0,0x6
    80001274:	e5050513          	addi	a0,a0,-432 # 800070c0 <Xil_AssertSetCallback+0x8c>
    80001278:	54d050ef          	jal	ra,80006fc4 <Xil_Assert>
    8000127c:	00006797          	auipc	a5,0x6
    80001280:	fc078793          	addi	a5,a5,-64 # 8000723c <Xil_AssertStatus>
    80001284:	00100713          	li	a4,1
    80001288:	00e7a023          	sw	a4,0(a5)
    8000128c:	00000013          	nop
    80001290:	01813083          	ld	ra,24(sp)
    80001294:	01013403          	ld	s0,16(sp)
    80001298:	02010113          	addi	sp,sp,32
    8000129c:	00008067          	ret

00000000800012a0 <XIic_StubStatusHandler>:
    800012a0:	fe010113          	addi	sp,sp,-32
    800012a4:	00113c23          	sd	ra,24(sp)
    800012a8:	00813823          	sd	s0,16(sp)
    800012ac:	02010413          	addi	s0,sp,32
    800012b0:	fea43423          	sd	a0,-24(s0)
    800012b4:	00058793          	mv	a5,a1
    800012b8:	fef42223          	sw	a5,-28(s0)
    800012bc:	2d000593          	li	a1,720
    800012c0:	00006517          	auipc	a0,0x6
    800012c4:	e0050513          	addi	a0,a0,-512 # 800070c0 <Xil_AssertSetCallback+0x8c>
    800012c8:	4fd050ef          	jal	ra,80006fc4 <Xil_Assert>
    800012cc:	00006797          	auipc	a5,0x6
    800012d0:	f7078793          	addi	a5,a5,-144 # 8000723c <Xil_AssertStatus>
    800012d4:	00100713          	li	a4,1
    800012d8:	00e7a023          	sw	a4,0(a5)
    800012dc:	00000013          	nop
    800012e0:	01813083          	ld	ra,24(sp)
    800012e4:	01013403          	ld	s0,16(sp)
    800012e8:	02010113          	addi	sp,sp,32
    800012ec:	00008067          	ret

00000000800012f0 <Xil_In32>:
    800012f0:	fe010113          	addi	sp,sp,-32
    800012f4:	00813c23          	sd	s0,24(sp)
    800012f8:	02010413          	addi	s0,sp,32
    800012fc:	fea43423          	sd	a0,-24(s0)
    80001300:	fe843783          	ld	a5,-24(s0)
    80001304:	0007a783          	lw	a5,0(a5)
    80001308:	0007879b          	sext.w	a5,a5
    8000130c:	00078513          	mv	a0,a5
    80001310:	01813403          	ld	s0,24(sp)
    80001314:	02010113          	addi	sp,sp,32
    80001318:	00008067          	ret

000000008000131c <Xil_Out32>:
    8000131c:	fd010113          	addi	sp,sp,-48
    80001320:	02813423          	sd	s0,40(sp)
    80001324:	03010413          	addi	s0,sp,48
    80001328:	fca43c23          	sd	a0,-40(s0)
    8000132c:	00058793          	mv	a5,a1
    80001330:	fcf42a23          	sw	a5,-44(s0)
    80001334:	fd843783          	ld	a5,-40(s0)
    80001338:	fef43423          	sd	a5,-24(s0)
    8000133c:	fe843783          	ld	a5,-24(s0)
    80001340:	fd442703          	lw	a4,-44(s0)
    80001344:	00e7a023          	sw	a4,0(a5)
    80001348:	00000013          	nop
    8000134c:	02813403          	ld	s0,40(sp)
    80001350:	03010113          	addi	sp,sp,48
    80001354:	00008067          	ret

0000000080001358 <XIic_DynMasterSend>:
    80001358:	fb010113          	addi	sp,sp,-80
    8000135c:	04113423          	sd	ra,72(sp)
    80001360:	04813023          	sd	s0,64(sp)
    80001364:	02913c23          	sd	s1,56(sp)
    80001368:	05010413          	addi	s0,sp,80
    8000136c:	fca43423          	sd	a0,-56(s0)
    80001370:	fcb43023          	sd	a1,-64(s0)
    80001374:	00060793          	mv	a5,a2
    80001378:	faf40fa3          	sb	a5,-65(s0)
    8000137c:	fc843783          	ld	a5,-56(s0)
    80001380:	0107b783          	ld	a5,16(a5)
    80001384:	01c78793          	addi	a5,a5,28
    80001388:	00000593          	li	a1,0
    8000138c:	00078513          	mv	a0,a5
    80001390:	f8dff0ef          	jal	ra,8000131c <Xil_Out32>
    80001394:	00006797          	auipc	a5,0x6
    80001398:	e7478793          	addi	a5,a5,-396 # 80007208 <XIic_RecvMasterFuncPtr>
    8000139c:	00001717          	auipc	a4,0x1
    800013a0:	8cc70713          	addi	a4,a4,-1844 # 80001c68 <DynRecvMasterData>
    800013a4:	00e7b023          	sd	a4,0(a5)
    800013a8:	00006797          	auipc	a5,0x6
    800013ac:	e6878793          	addi	a5,a5,-408 # 80007210 <XIic_SendMasterFuncPtr>
    800013b0:	00000717          	auipc	a4,0x0
    800013b4:	28870713          	addi	a4,a4,648 # 80001638 <DynSendMasterData>
    800013b8:	00e7b023          	sd	a4,0(a5)
    800013bc:	fc843783          	ld	a5,-56(s0)
    800013c0:	00100713          	li	a4,1
    800013c4:	08e7a423          	sw	a4,136(a5)
    800013c8:	fc843503          	ld	a0,-56(s0)
    800013cc:	441000ef          	jal	ra,8000200c <IsBusBusy>
    800013d0:	00050793          	mv	a5,a0
    800013d4:	02078263          	beqz	a5,800013f8 <XIic_DynMasterSend+0xa0>
    800013d8:	fc843783          	ld	a5,-56(s0)
    800013dc:	0107b783          	ld	a5,16(a5)
    800013e0:	01c78793          	addi	a5,a5,28
    800013e4:	800005b7          	lui	a1,0x80000
    800013e8:	00078513          	mv	a0,a5
    800013ec:	f31ff0ef          	jal	ra,8000131c <Xil_Out32>
    800013f0:	00100793          	li	a5,1
    800013f4:	22c0006f          	j	80001620 <XIic_DynMasterSend+0x2c8>
    800013f8:	fc843783          	ld	a5,-56(s0)
    800013fc:	0107b783          	ld	a5,16(a5)
    80001400:	10078793          	addi	a5,a5,256
    80001404:	00078513          	mv	a0,a5
    80001408:	ee9ff0ef          	jal	ra,800012f0 <Xil_In32>
    8000140c:	00050793          	mv	a5,a0
    80001410:	fcf42e23          	sw	a5,-36(s0)
    80001414:	fdc42783          	lw	a5,-36(s0)
    80001418:	0047f793          	andi	a5,a5,4
    8000141c:	0007879b          	sext.w	a5,a5
    80001420:	04078863          	beqz	a5,80001470 <XIic_DynMasterSend+0x118>
    80001424:	fdc42783          	lw	a5,-36(s0)
    80001428:	fef7f793          	andi	a5,a5,-17
    8000142c:	fcf42e23          	sw	a5,-36(s0)
    80001430:	fdc42783          	lw	a5,-36(s0)
    80001434:	0087e793          	ori	a5,a5,8
    80001438:	fcf42e23          	sw	a5,-36(s0)
    8000143c:	fc843783          	ld	a5,-56(s0)
    80001440:	0107b783          	ld	a5,16(a5)
    80001444:	10078793          	addi	a5,a5,256
    80001448:	fdc42703          	lw	a4,-36(s0)
    8000144c:	00070593          	mv	a1,a4
    80001450:	00078513          	mv	a0,a5
    80001454:	ec9ff0ef          	jal	ra,8000131c <Xil_Out32>
    80001458:	fc843783          	ld	a5,-56(s0)
    8000145c:	0017c783          	lbu	a5,1(a5)
    80001460:	0017879b          	addiw	a5,a5,1
    80001464:	0ff7f713          	andi	a4,a5,255
    80001468:	fc843783          	ld	a5,-56(s0)
    8000146c:	00e780a3          	sb	a4,1(a5)
    80001470:	fbf44783          	lbu	a5,-65(s0)
    80001474:	0007871b          	sext.w	a4,a5
    80001478:	fc843783          	ld	a5,-56(s0)
    8000147c:	04e7a223          	sw	a4,68(a5)
    80001480:	fc843783          	ld	a5,-56(s0)
    80001484:	fc043703          	ld	a4,-64(s0)
    80001488:	02e7b823          	sd	a4,48(a5)
    8000148c:	fc843783          	ld	a5,-56(s0)
    80001490:	0247a783          	lw	a5,36(a5)
    80001494:	0ff7f793          	andi	a5,a5,255
    80001498:	0017979b          	slliw	a5,a5,0x1
    8000149c:	fcf40da3          	sb	a5,-37(s0)
    800014a0:	fdb44783          	lbu	a5,-37(s0)
    800014a4:	ffe7f793          	andi	a5,a5,-2
    800014a8:	fcf40da3          	sb	a5,-37(s0)
    800014ac:	fc843783          	ld	a5,-56(s0)
    800014b0:	0107b783          	ld	a5,16(a5)
    800014b4:	10878713          	addi	a4,a5,264
    800014b8:	fdb44783          	lbu	a5,-37(s0)
    800014bc:	0007879b          	sext.w	a5,a5
    800014c0:	1007e793          	ori	a5,a5,256
    800014c4:	0007879b          	sext.w	a5,a5
    800014c8:	0007879b          	sext.w	a5,a5
    800014cc:	00078593          	mv	a1,a5
    800014d0:	00070513          	mv	a0,a4
    800014d4:	e49ff0ef          	jal	ra,8000131c <Xil_Out32>
    800014d8:	fc843783          	ld	a5,-56(s0)
    800014dc:	04078023          	sb	zero,64(a5)
    800014e0:	fc843783          	ld	a5,-56(s0)
    800014e4:	0447a783          	lw	a5,68(a5)
    800014e8:	00078713          	mv	a4,a5
    800014ec:	00100793          	li	a5,1
    800014f0:	00e7d863          	bge	a5,a4,80001500 <XIic_DynMasterSend+0x1a8>
    800014f4:	00100593          	li	a1,1
    800014f8:	fc843503          	ld	a0,-56(s0)
    800014fc:	160010ef          	jal	ra,8000265c <XIic_TransmitFifoFill>
    80001500:	fc843783          	ld	a5,-56(s0)
    80001504:	0447a783          	lw	a5,68(a5)
    80001508:	00078713          	mv	a4,a5
    8000150c:	00100793          	li	a5,1
    80001510:	06e7de63          	bge	a5,a4,8000158c <XIic_DynMasterSend+0x234>
    80001514:	fc843783          	ld	a5,-56(s0)
    80001518:	0107b783          	ld	a5,16(a5)
    8000151c:	02078493          	addi	s1,a5,32
    80001520:	fc843783          	ld	a5,-56(s0)
    80001524:	0107b783          	ld	a5,16(a5)
    80001528:	02078793          	addi	a5,a5,32
    8000152c:	00078513          	mv	a0,a5
    80001530:	dc1ff0ef          	jal	ra,800012f0 <Xil_In32>
    80001534:	00050793          	mv	a5,a0
    80001538:	0007879b          	sext.w	a5,a5
    8000153c:	0807f793          	andi	a5,a5,128
    80001540:	0007879b          	sext.w	a5,a5
    80001544:	00078593          	mv	a1,a5
    80001548:	00048513          	mv	a0,s1
    8000154c:	dd1ff0ef          	jal	ra,8000131c <Xil_Out32>
    80001550:	fc843783          	ld	a5,-56(s0)
    80001554:	0107b783          	ld	a5,16(a5)
    80001558:	02878493          	addi	s1,a5,40
    8000155c:	fc843783          	ld	a5,-56(s0)
    80001560:	0107b783          	ld	a5,16(a5)
    80001564:	02878793          	addi	a5,a5,40
    80001568:	00078513          	mv	a0,a5
    8000156c:	d85ff0ef          	jal	ra,800012f0 <Xil_In32>
    80001570:	00050793          	mv	a5,a0
    80001574:	0007879b          	sext.w	a5,a5
    80001578:	0807e793          	ori	a5,a5,128
    8000157c:	0007879b          	sext.w	a5,a5
    80001580:	00078593          	mv	a1,a5
    80001584:	00048513          	mv	a0,s1
    80001588:	d95ff0ef          	jal	ra,8000131c <Xil_Out32>
    8000158c:	fc843783          	ld	a5,-56(s0)
    80001590:	0107b783          	ld	a5,16(a5)
    80001594:	02078493          	addi	s1,a5,32
    80001598:	fc843783          	ld	a5,-56(s0)
    8000159c:	0107b783          	ld	a5,16(a5)
    800015a0:	02078793          	addi	a5,a5,32
    800015a4:	00078513          	mv	a0,a5
    800015a8:	d49ff0ef          	jal	ra,800012f0 <Xil_In32>
    800015ac:	00050793          	mv	a5,a0
    800015b0:	0007879b          	sext.w	a5,a5
    800015b4:	0067f793          	andi	a5,a5,6
    800015b8:	0007879b          	sext.w	a5,a5
    800015bc:	00078593          	mv	a1,a5
    800015c0:	00048513          	mv	a0,s1
    800015c4:	d59ff0ef          	jal	ra,8000131c <Xil_Out32>
    800015c8:	fc843783          	ld	a5,-56(s0)
    800015cc:	0107b783          	ld	a5,16(a5)
    800015d0:	02878493          	addi	s1,a5,40
    800015d4:	fc843783          	ld	a5,-56(s0)
    800015d8:	0107b783          	ld	a5,16(a5)
    800015dc:	02878793          	addi	a5,a5,40
    800015e0:	00078513          	mv	a0,a5
    800015e4:	d0dff0ef          	jal	ra,800012f0 <Xil_In32>
    800015e8:	00050793          	mv	a5,a0
    800015ec:	0007879b          	sext.w	a5,a5
    800015f0:	0067e793          	ori	a5,a5,6
    800015f4:	0007879b          	sext.w	a5,a5
    800015f8:	00078593          	mv	a1,a5
    800015fc:	00048513          	mv	a0,s1
    80001600:	d1dff0ef          	jal	ra,8000131c <Xil_Out32>
    80001604:	fc843783          	ld	a5,-56(s0)
    80001608:	0107b783          	ld	a5,16(a5)
    8000160c:	01c78793          	addi	a5,a5,28
    80001610:	800005b7          	lui	a1,0x80000
    80001614:	00078513          	mv	a0,a5
    80001618:	d05ff0ef          	jal	ra,8000131c <Xil_Out32>
    8000161c:	00000793          	li	a5,0
    80001620:	00078513          	mv	a0,a5
    80001624:	04813083          	ld	ra,72(sp)
    80001628:	04013403          	ld	s0,64(sp)
    8000162c:	03813483          	ld	s1,56(sp)
    80001630:	05010113          	addi	sp,sp,80
    80001634:	00008067          	ret

0000000080001638 <DynSendMasterData>:
    80001638:	fc010113          	addi	sp,sp,-64
    8000163c:	02113c23          	sd	ra,56(sp)
    80001640:	02813823          	sd	s0,48(sp)
    80001644:	02913423          	sd	s1,40(sp)
    80001648:	04010413          	addi	s0,sp,64
    8000164c:	fca43423          	sd	a0,-56(s0)
    80001650:	fc843783          	ld	a5,-56(s0)
    80001654:	0447a783          	lw	a5,68(a5)
    80001658:	00078713          	mv	a4,a5
    8000165c:	00100793          	li	a5,1
    80001660:	06e7d263          	bge	a5,a4,800016c4 <DynSendMasterData+0x8c>
    80001664:	00100593          	li	a1,1
    80001668:	fc843503          	ld	a0,-56(s0)
    8000166c:	7f1000ef          	jal	ra,8000265c <XIic_TransmitFifoFill>
    80001670:	fc843783          	ld	a5,-56(s0)
    80001674:	0447a783          	lw	a5,68(a5)
    80001678:	00078713          	mv	a4,a5
    8000167c:	00100793          	li	a5,1
    80001680:	24e7c063          	blt	a5,a4,800018c0 <DynSendMasterData+0x288>
    80001684:	fc843783          	ld	a5,-56(s0)
    80001688:	0107b783          	ld	a5,16(a5)
    8000168c:	02878493          	addi	s1,a5,40
    80001690:	fc843783          	ld	a5,-56(s0)
    80001694:	0107b783          	ld	a5,16(a5)
    80001698:	02878793          	addi	a5,a5,40
    8000169c:	00078513          	mv	a0,a5
    800016a0:	c51ff0ef          	jal	ra,800012f0 <Xil_In32>
    800016a4:	00050793          	mv	a5,a0
    800016a8:	0007879b          	sext.w	a5,a5
    800016ac:	f7f7f793          	andi	a5,a5,-129
    800016b0:	0007879b          	sext.w	a5,a5
    800016b4:	00078593          	mv	a1,a5
    800016b8:	00048513          	mv	a0,s1
    800016bc:	c61ff0ef          	jal	ra,8000131c <Xil_Out32>
    800016c0:	2000006f          	j	800018c0 <DynSendMasterData+0x288>
    800016c4:	fc843783          	ld	a5,-56(s0)
    800016c8:	0447a783          	lw	a5,68(a5)
    800016cc:	00078713          	mv	a4,a5
    800016d0:	00100793          	li	a5,1
    800016d4:	12f71c63          	bne	a4,a5,8000180c <DynSendMasterData+0x1d4>
    800016d8:	fc843783          	ld	a5,-56(s0)
    800016dc:	0287a783          	lw	a5,40(a5)
    800016e0:	0027f793          	andi	a5,a5,2
    800016e4:	0007879b          	sext.w	a5,a5
    800016e8:	06078663          	beqz	a5,80001754 <DynSendMasterData+0x11c>
    800016ec:	fc843783          	ld	a5,-56(s0)
    800016f0:	0107b783          	ld	a5,16(a5)
    800016f4:	10878613          	addi	a2,a5,264
    800016f8:	fc843783          	ld	a5,-56(s0)
    800016fc:	0307b783          	ld	a5,48(a5)
    80001700:	00178693          	addi	a3,a5,1
    80001704:	fc843703          	ld	a4,-56(s0)
    80001708:	02d73823          	sd	a3,48(a4)
    8000170c:	0007c783          	lbu	a5,0(a5)
    80001710:	0007879b          	sext.w	a5,a5
    80001714:	00078593          	mv	a1,a5
    80001718:	00060513          	mv	a0,a2
    8000171c:	c01ff0ef          	jal	ra,8000131c <Xil_Out32>
    80001720:	fc843783          	ld	a5,-56(s0)
    80001724:	0447a783          	lw	a5,68(a5)
    80001728:	fff7879b          	addiw	a5,a5,-1
    8000172c:	0007871b          	sext.w	a4,a5
    80001730:	fc843783          	ld	a5,-56(s0)
    80001734:	04e7a223          	sw	a4,68(a5)
    80001738:	fc843783          	ld	a5,-56(s0)
    8000173c:	0057c783          	lbu	a5,5(a5)
    80001740:	0017879b          	addiw	a5,a5,1
    80001744:	0ff7f713          	andi	a4,a5,255
    80001748:	fc843783          	ld	a5,-56(s0)
    8000174c:	00e782a3          	sb	a4,5(a5)
    80001750:	1700006f          	j	800018c0 <DynSendMasterData+0x288>
    80001754:	fc843783          	ld	a5,-56(s0)
    80001758:	0107b783          	ld	a5,16(a5)
    8000175c:	10878713          	addi	a4,a5,264
    80001760:	fc843783          	ld	a5,-56(s0)
    80001764:	0307b783          	ld	a5,48(a5)
    80001768:	0007c783          	lbu	a5,0(a5)
    8000176c:	0007879b          	sext.w	a5,a5
    80001770:	2007e793          	ori	a5,a5,512
    80001774:	0007879b          	sext.w	a5,a5
    80001778:	0007879b          	sext.w	a5,a5
    8000177c:	00078593          	mv	a1,a5
    80001780:	00070513          	mv	a0,a4
    80001784:	b99ff0ef          	jal	ra,8000131c <Xil_Out32>
    80001788:	fc843783          	ld	a5,-56(s0)
    8000178c:	0407a623          	sw	zero,76(a5)
    80001790:	fc843783          	ld	a5,-56(s0)
    80001794:	0107b783          	ld	a5,16(a5)
    80001798:	02878493          	addi	s1,a5,40
    8000179c:	fc843783          	ld	a5,-56(s0)
    800017a0:	0107b783          	ld	a5,16(a5)
    800017a4:	02878793          	addi	a5,a5,40
    800017a8:	00078513          	mv	a0,a5
    800017ac:	b45ff0ef          	jal	ra,800012f0 <Xil_In32>
    800017b0:	00050793          	mv	a5,a0
    800017b4:	0007879b          	sext.w	a5,a5
    800017b8:	f797f793          	andi	a5,a5,-135
    800017bc:	0007879b          	sext.w	a5,a5
    800017c0:	00078593          	mv	a1,a5
    800017c4:	00048513          	mv	a0,s1
    800017c8:	b55ff0ef          	jal	ra,8000131c <Xil_Out32>
    800017cc:	fc843783          	ld	a5,-56(s0)
    800017d0:	0107b783          	ld	a5,16(a5)
    800017d4:	02878493          	addi	s1,a5,40
    800017d8:	fc843783          	ld	a5,-56(s0)
    800017dc:	0107b783          	ld	a5,16(a5)
    800017e0:	02878793          	addi	a5,a5,40
    800017e4:	00078513          	mv	a0,a5
    800017e8:	b09ff0ef          	jal	ra,800012f0 <Xil_In32>
    800017ec:	00050793          	mv	a5,a0
    800017f0:	0007879b          	sext.w	a5,a5
    800017f4:	0107e793          	ori	a5,a5,16
    800017f8:	0007879b          	sext.w	a5,a5
    800017fc:	00078593          	mv	a1,a5
    80001800:	00048513          	mv	a0,s1
    80001804:	b19ff0ef          	jal	ra,8000131c <Xil_Out32>
    80001808:	0b80006f          	j	800018c0 <DynSendMasterData+0x288>
    8000180c:	fc843783          	ld	a5,-56(s0)
    80001810:	0287a783          	lw	a5,40(a5)
    80001814:	0027f793          	andi	a5,a5,2
    80001818:	0007879b          	sext.w	a5,a5
    8000181c:	0a078263          	beqz	a5,800018c0 <DynSendMasterData+0x288>
    80001820:	fc843783          	ld	a5,-56(s0)
    80001824:	0107b783          	ld	a5,16(a5)
    80001828:	10078793          	addi	a5,a5,256
    8000182c:	00078513          	mv	a0,a5
    80001830:	ac1ff0ef          	jal	ra,800012f0 <Xil_In32>
    80001834:	00050793          	mv	a5,a0
    80001838:	fcf42e23          	sw	a5,-36(s0)
    8000183c:	fdc42783          	lw	a5,-36(s0)
    80001840:	0207e793          	ori	a5,a5,32
    80001844:	fcf42e23          	sw	a5,-36(s0)
    80001848:	fc843783          	ld	a5,-56(s0)
    8000184c:	0107b783          	ld	a5,16(a5)
    80001850:	10078793          	addi	a5,a5,256
    80001854:	fdc42703          	lw	a4,-36(s0)
    80001858:	00070593          	mv	a1,a4
    8000185c:	00078513          	mv	a0,a5
    80001860:	abdff0ef          	jal	ra,8000131c <Xil_Out32>
    80001864:	fc843783          	ld	a5,-56(s0)
    80001868:	0107b783          	ld	a5,16(a5)
    8000186c:	02878493          	addi	s1,a5,40
    80001870:	fc843783          	ld	a5,-56(s0)
    80001874:	0107b783          	ld	a5,16(a5)
    80001878:	02878793          	addi	a5,a5,40
    8000187c:	00078513          	mv	a0,a5
    80001880:	a71ff0ef          	jal	ra,800012f0 <Xil_In32>
    80001884:	00050793          	mv	a5,a0
    80001888:	0007879b          	sext.w	a5,a5
    8000188c:	f797f793          	andi	a5,a5,-135
    80001890:	0007879b          	sext.w	a5,a5
    80001894:	00078593          	mv	a1,a5
    80001898:	00048513          	mv	a0,s1
    8000189c:	a81ff0ef          	jal	ra,8000131c <Xil_Out32>
    800018a0:	fc843783          	ld	a5,-56(s0)
    800018a4:	0787b703          	ld	a4,120(a5)
    800018a8:	fc843783          	ld	a5,-56(s0)
    800018ac:	0807b783          	ld	a5,128(a5)
    800018b0:	00000593          	li	a1,0
    800018b4:	00078513          	mv	a0,a5
    800018b8:	000700e7          	jalr	a4
    800018bc:	00000013          	nop
    800018c0:	00000013          	nop
    800018c4:	03813083          	ld	ra,56(sp)
    800018c8:	03013403          	ld	s0,48(sp)
    800018cc:	02813483          	ld	s1,40(sp)
    800018d0:	04010113          	addi	sp,sp,64
    800018d4:	00008067          	ret

00000000800018d8 <XIic_DynMasterRecv>:
    800018d8:	fb010113          	addi	sp,sp,-80
    800018dc:	04113423          	sd	ra,72(sp)
    800018e0:	04813023          	sd	s0,64(sp)
    800018e4:	02913c23          	sd	s1,56(sp)
    800018e8:	05010413          	addi	s0,sp,80
    800018ec:	fca43423          	sd	a0,-56(s0)
    800018f0:	fcb43023          	sd	a1,-64(s0)
    800018f4:	00060793          	mv	a5,a2
    800018f8:	faf40fa3          	sb	a5,-65(s0)
    800018fc:	fc843783          	ld	a5,-56(s0)
    80001900:	0247a783          	lw	a5,36(a5)
    80001904:	00079663          	bnez	a5,80001910 <XIic_DynMasterRecv+0x38>
    80001908:	43600793          	li	a5,1078
    8000190c:	3440006f          	j	80001c50 <XIic_DynMasterRecv+0x378>
    80001910:	fc843783          	ld	a5,-56(s0)
    80001914:	0107b783          	ld	a5,16(a5)
    80001918:	01c78793          	addi	a5,a5,28
    8000191c:	00000593          	li	a1,0
    80001920:	00078513          	mv	a0,a5
    80001924:	9f9ff0ef          	jal	ra,8000131c <Xil_Out32>
    80001928:	00006797          	auipc	a5,0x6
    8000192c:	8e078793          	addi	a5,a5,-1824 # 80007208 <XIic_RecvMasterFuncPtr>
    80001930:	00000717          	auipc	a4,0x0
    80001934:	33870713          	addi	a4,a4,824 # 80001c68 <DynRecvMasterData>
    80001938:	00e7b023          	sd	a4,0(a5)
    8000193c:	00006797          	auipc	a5,0x6
    80001940:	8d478793          	addi	a5,a5,-1836 # 80007210 <XIic_SendMasterFuncPtr>
    80001944:	00000717          	auipc	a4,0x0
    80001948:	cf470713          	addi	a4,a4,-780 # 80001638 <DynSendMasterData>
    8000194c:	00e7b023          	sd	a4,0(a5)
    80001950:	fc843783          	ld	a5,-56(s0)
    80001954:	00100713          	li	a4,1
    80001958:	08e7a423          	sw	a4,136(a5)
    8000195c:	fc843503          	ld	a0,-56(s0)
    80001960:	6ac000ef          	jal	ra,8000200c <IsBusBusy>
    80001964:	00050793          	mv	a5,a0
    80001968:	02078263          	beqz	a5,8000198c <XIic_DynMasterRecv+0xb4>
    8000196c:	fc843783          	ld	a5,-56(s0)
    80001970:	0107b783          	ld	a5,16(a5)
    80001974:	01c78793          	addi	a5,a5,28
    80001978:	800005b7          	lui	a1,0x80000
    8000197c:	00078513          	mv	a0,a5
    80001980:	99dff0ef          	jal	ra,8000131c <Xil_Out32>
    80001984:	43500793          	li	a5,1077
    80001988:	2c80006f          	j	80001c50 <XIic_DynMasterRecv+0x378>
    8000198c:	fbf44783          	lbu	a5,-65(s0)
    80001990:	0007871b          	sext.w	a4,a5
    80001994:	fc843783          	ld	a5,-56(s0)
    80001998:	04e7a423          	sw	a4,72(a5)
    8000199c:	fc843783          	ld	a5,-56(s0)
    800019a0:	fc043703          	ld	a4,-64(s0)
    800019a4:	02e7bc23          	sd	a4,56(a5)
    800019a8:	fc843783          	ld	a5,-56(s0)
    800019ac:	0107b783          	ld	a5,16(a5)
    800019b0:	02078493          	addi	s1,a5,32
    800019b4:	fc843783          	ld	a5,-56(s0)
    800019b8:	0107b783          	ld	a5,16(a5)
    800019bc:	02078793          	addi	a5,a5,32
    800019c0:	00078513          	mv	a0,a5
    800019c4:	92dff0ef          	jal	ra,800012f0 <Xil_In32>
    800019c8:	00050793          	mv	a5,a0
    800019cc:	0007879b          	sext.w	a5,a5
    800019d0:	0087f793          	andi	a5,a5,8
    800019d4:	0007879b          	sext.w	a5,a5
    800019d8:	00078593          	mv	a1,a5
    800019dc:	00048513          	mv	a0,s1
    800019e0:	93dff0ef          	jal	ra,8000131c <Xil_Out32>
    800019e4:	fc843783          	ld	a5,-56(s0)
    800019e8:	0107b783          	ld	a5,16(a5)
    800019ec:	02878493          	addi	s1,a5,40
    800019f0:	fc843783          	ld	a5,-56(s0)
    800019f4:	0107b783          	ld	a5,16(a5)
    800019f8:	02878793          	addi	a5,a5,40
    800019fc:	00078513          	mv	a0,a5
    80001a00:	8f1ff0ef          	jal	ra,800012f0 <Xil_In32>
    80001a04:	00050793          	mv	a5,a0
    80001a08:	0007879b          	sext.w	a5,a5
    80001a0c:	0087e793          	ori	a5,a5,8
    80001a10:	0007879b          	sext.w	a5,a5
    80001a14:	00078593          	mv	a1,a5
    80001a18:	00048513          	mv	a0,s1
    80001a1c:	901ff0ef          	jal	ra,8000131c <Xil_Out32>
    80001a20:	fc843783          	ld	a5,-56(s0)
    80001a24:	0107b783          	ld	a5,16(a5)
    80001a28:	10078793          	addi	a5,a5,256
    80001a2c:	00078513          	mv	a0,a5
    80001a30:	8c1ff0ef          	jal	ra,800012f0 <Xil_In32>
    80001a34:	00050793          	mv	a5,a0
    80001a38:	fcf42e23          	sw	a5,-36(s0)
    80001a3c:	fdc42783          	lw	a5,-36(s0)
    80001a40:	0047f793          	andi	a5,a5,4
    80001a44:	0007879b          	sext.w	a5,a5
    80001a48:	08078863          	beqz	a5,80001ad8 <XIic_DynMasterRecv+0x200>
    80001a4c:	fdc42783          	lw	a5,-36(s0)
    80001a50:	0207e793          	ori	a5,a5,32
    80001a54:	fcf42e23          	sw	a5,-36(s0)
    80001a58:	fdc42783          	lw	a5,-36(s0)
    80001a5c:	fe77f793          	andi	a5,a5,-25
    80001a60:	fcf42e23          	sw	a5,-36(s0)
    80001a64:	fc843783          	ld	a5,-56(s0)
    80001a68:	0287a783          	lw	a5,40(a5)
    80001a6c:	0047f793          	andi	a5,a5,4
    80001a70:	0007879b          	sext.w	a5,a5
    80001a74:	00078a63          	beqz	a5,80001a88 <XIic_DynMasterRecv+0x1b0>
    80001a78:	fdc42783          	lw	a5,-36(s0)
    80001a7c:	0087e793          	ori	a5,a5,8
    80001a80:	fcf42e23          	sw	a5,-36(s0)
    80001a84:	0200006f          	j	80001aa4 <XIic_DynMasterRecv+0x1cc>
    80001a88:	fbf44783          	lbu	a5,-65(s0)
    80001a8c:	0ff7f713          	andi	a4,a5,255
    80001a90:	00100793          	li	a5,1
    80001a94:	00f71863          	bne	a4,a5,80001aa4 <XIic_DynMasterRecv+0x1cc>
    80001a98:	fdc42783          	lw	a5,-36(s0)
    80001a9c:	0107e793          	ori	a5,a5,16
    80001aa0:	fcf42e23          	sw	a5,-36(s0)
    80001aa4:	fc843783          	ld	a5,-56(s0)
    80001aa8:	0017c783          	lbu	a5,1(a5)
    80001aac:	0017879b          	addiw	a5,a5,1
    80001ab0:	0ff7f713          	andi	a4,a5,255
    80001ab4:	fc843783          	ld	a5,-56(s0)
    80001ab8:	00e780a3          	sb	a4,1(a5)
    80001abc:	fc843783          	ld	a5,-56(s0)
    80001ac0:	0107b783          	ld	a5,16(a5)
    80001ac4:	10078793          	addi	a5,a5,256
    80001ac8:	fdc42703          	lw	a4,-36(s0)
    80001acc:	00070593          	mv	a1,a4
    80001ad0:	00078513          	mv	a0,a5
    80001ad4:	849ff0ef          	jal	ra,8000131c <Xil_Out32>
    80001ad8:	fbf44783          	lbu	a5,-65(s0)
    80001adc:	0ff7f713          	andi	a4,a5,255
    80001ae0:	00100793          	li	a5,1
    80001ae4:	00f71663          	bne	a4,a5,80001af0 <XIic_DynMasterRecv+0x218>
    80001ae8:	fc042c23          	sw	zero,-40(s0)
    80001aec:	0340006f          	j	80001b20 <XIic_DynMasterRecv+0x248>
    80001af0:	fbf44783          	lbu	a5,-65(s0)
    80001af4:	0ff7f713          	andi	a4,a5,255
    80001af8:	01000793          	li	a5,16
    80001afc:	00e7ee63          	bltu	a5,a4,80001b18 <XIic_DynMasterRecv+0x240>
    80001b00:	fbf44783          	lbu	a5,-65(s0)
    80001b04:	0007879b          	sext.w	a5,a5
    80001b08:	ffe7879b          	addiw	a5,a5,-2
    80001b0c:	0007879b          	sext.w	a5,a5
    80001b10:	fcf42c23          	sw	a5,-40(s0)
    80001b14:	00c0006f          	j	80001b20 <XIic_DynMasterRecv+0x248>
    80001b18:	00f00793          	li	a5,15
    80001b1c:	fcf42c23          	sw	a5,-40(s0)
    80001b20:	fc843783          	ld	a5,-56(s0)
    80001b24:	0107b783          	ld	a5,16(a5)
    80001b28:	12078793          	addi	a5,a5,288
    80001b2c:	fd842703          	lw	a4,-40(s0)
    80001b30:	00070593          	mv	a1,a4
    80001b34:	00078513          	mv	a0,a5
    80001b38:	fe4ff0ef          	jal	ra,8000131c <Xil_Out32>
    80001b3c:	fc843783          	ld	a5,-56(s0)
    80001b40:	0247a783          	lw	a5,36(a5)
    80001b44:	0ff7f793          	andi	a5,a5,255
    80001b48:	0017979b          	slliw	a5,a5,0x1
    80001b4c:	fcf40ba3          	sb	a5,-41(s0)
    80001b50:	fd744783          	lbu	a5,-41(s0)
    80001b54:	0017e793          	ori	a5,a5,1
    80001b58:	fcf40ba3          	sb	a5,-41(s0)
    80001b5c:	fc843783          	ld	a5,-56(s0)
    80001b60:	0107b783          	ld	a5,16(a5)
    80001b64:	10878713          	addi	a4,a5,264
    80001b68:	fd744783          	lbu	a5,-41(s0)
    80001b6c:	0007879b          	sext.w	a5,a5
    80001b70:	1007e793          	ori	a5,a5,256
    80001b74:	0007879b          	sext.w	a5,a5
    80001b78:	0007879b          	sext.w	a5,a5
    80001b7c:	00078593          	mv	a1,a5
    80001b80:	00070513          	mv	a0,a4
    80001b84:	f98ff0ef          	jal	ra,8000131c <Xil_Out32>
    80001b88:	fc843783          	ld	a5,-56(s0)
    80001b8c:	04078023          	sb	zero,64(a5)
    80001b90:	fc843783          	ld	a5,-56(s0)
    80001b94:	0107b783          	ld	a5,16(a5)
    80001b98:	10878713          	addi	a4,a5,264
    80001b9c:	fbf44783          	lbu	a5,-65(s0)
    80001ba0:	0007879b          	sext.w	a5,a5
    80001ba4:	2007e793          	ori	a5,a5,512
    80001ba8:	0007879b          	sext.w	a5,a5
    80001bac:	0007879b          	sext.w	a5,a5
    80001bb0:	00078593          	mv	a1,a5
    80001bb4:	00070513          	mv	a0,a4
    80001bb8:	f64ff0ef          	jal	ra,8000131c <Xil_Out32>
    80001bbc:	fc843783          	ld	a5,-56(s0)
    80001bc0:	0107b783          	ld	a5,16(a5)
    80001bc4:	02078493          	addi	s1,a5,32
    80001bc8:	fc843783          	ld	a5,-56(s0)
    80001bcc:	0107b783          	ld	a5,16(a5)
    80001bd0:	02078793          	addi	a5,a5,32
    80001bd4:	00078513          	mv	a0,a5
    80001bd8:	f18ff0ef          	jal	ra,800012f0 <Xil_In32>
    80001bdc:	00050793          	mv	a5,a0
    80001be0:	0007879b          	sext.w	a5,a5
    80001be4:	0027f793          	andi	a5,a5,2
    80001be8:	0007879b          	sext.w	a5,a5
    80001bec:	00078593          	mv	a1,a5
    80001bf0:	00048513          	mv	a0,s1
    80001bf4:	f28ff0ef          	jal	ra,8000131c <Xil_Out32>
    80001bf8:	fc843783          	ld	a5,-56(s0)
    80001bfc:	0107b783          	ld	a5,16(a5)
    80001c00:	02878493          	addi	s1,a5,40
    80001c04:	fc843783          	ld	a5,-56(s0)
    80001c08:	0107b783          	ld	a5,16(a5)
    80001c0c:	02878793          	addi	a5,a5,40
    80001c10:	00078513          	mv	a0,a5
    80001c14:	edcff0ef          	jal	ra,800012f0 <Xil_In32>
    80001c18:	00050793          	mv	a5,a0
    80001c1c:	0007879b          	sext.w	a5,a5
    80001c20:	0027e793          	ori	a5,a5,2
    80001c24:	0007879b          	sext.w	a5,a5
    80001c28:	00078593          	mv	a1,a5
    80001c2c:	00048513          	mv	a0,s1
    80001c30:	eecff0ef          	jal	ra,8000131c <Xil_Out32>
    80001c34:	fc843783          	ld	a5,-56(s0)
    80001c38:	0107b783          	ld	a5,16(a5)
    80001c3c:	01c78793          	addi	a5,a5,28
    80001c40:	800005b7          	lui	a1,0x80000
    80001c44:	00078513          	mv	a0,a5
    80001c48:	ed4ff0ef          	jal	ra,8000131c <Xil_Out32>
    80001c4c:	00000793          	li	a5,0
    80001c50:	00078513          	mv	a0,a5
    80001c54:	04813083          	ld	ra,72(sp)
    80001c58:	04013403          	ld	s0,64(sp)
    80001c5c:	03813483          	ld	s1,56(sp)
    80001c60:	05010113          	addi	sp,sp,80
    80001c64:	00008067          	ret

0000000080001c68 <DynRecvMasterData>:
    80001c68:	fc010113          	addi	sp,sp,-64
    80001c6c:	02113c23          	sd	ra,56(sp)
    80001c70:	02813823          	sd	s0,48(sp)
    80001c74:	02913423          	sd	s1,40(sp)
    80001c78:	04010413          	addi	s0,sp,64
    80001c7c:	fca43423          	sd	a0,-56(s0)
    80001c80:	fc843783          	ld	a5,-56(s0)
    80001c84:	0107b783          	ld	a5,16(a5)
    80001c88:	10078793          	addi	a5,a5,256
    80001c8c:	00078513          	mv	a0,a5
    80001c90:	e60ff0ef          	jal	ra,800012f0 <Xil_In32>
    80001c94:	00050793          	mv	a5,a0
    80001c98:	fcf42c23          	sw	a5,-40(s0)
    80001c9c:	fc843783          	ld	a5,-56(s0)
    80001ca0:	0107b783          	ld	a5,16(a5)
    80001ca4:	11878793          	addi	a5,a5,280
    80001ca8:	00078513          	mv	a0,a5
    80001cac:	e44ff0ef          	jal	ra,800012f0 <Xil_In32>
    80001cb0:	00050793          	mv	a5,a0
    80001cb4:	0007879b          	sext.w	a5,a5
    80001cb8:	0ff7f793          	andi	a5,a5,255
    80001cbc:	0017879b          	addiw	a5,a5,1
    80001cc0:	fcf40ba3          	sb	a5,-41(s0)
    80001cc4:	fc843783          	ld	a5,-56(s0)
    80001cc8:	0487a703          	lw	a4,72(a5)
    80001ccc:	fd744783          	lbu	a5,-41(s0)
    80001cd0:	0007879b          	sext.w	a5,a5
    80001cd4:	40f707bb          	subw	a5,a4,a5
    80001cd8:	0007879b          	sext.w	a5,a5
    80001cdc:	00078713          	mv	a4,a5
    80001ce0:	00100793          	li	a5,1
    80001ce4:	0ef71663          	bne	a4,a5,80001dd0 <DynRecvMasterData+0x168>
    80001ce8:	fc843783          	ld	a5,-56(s0)
    80001cec:	0107b783          	ld	a5,16(a5)
    80001cf0:	02878493          	addi	s1,a5,40
    80001cf4:	fc843783          	ld	a5,-56(s0)
    80001cf8:	0107b783          	ld	a5,16(a5)
    80001cfc:	02878793          	addi	a5,a5,40
    80001d00:	00078513          	mv	a0,a5
    80001d04:	decff0ef          	jal	ra,800012f0 <Xil_In32>
    80001d08:	00050793          	mv	a5,a0
    80001d0c:	0007879b          	sext.w	a5,a5
    80001d10:	ffd7f793          	andi	a5,a5,-3
    80001d14:	0007879b          	sext.w	a5,a5
    80001d18:	00078593          	mv	a1,a5
    80001d1c:	00048513          	mv	a0,s1
    80001d20:	dfcff0ef          	jal	ra,8000131c <Xil_Out32>
    80001d24:	fc843783          	ld	a5,-56(s0)
    80001d28:	0107b783          	ld	a5,16(a5)
    80001d2c:	02078493          	addi	s1,a5,32
    80001d30:	fc843783          	ld	a5,-56(s0)
    80001d34:	0107b783          	ld	a5,16(a5)
    80001d38:	02078793          	addi	a5,a5,32
    80001d3c:	00078513          	mv	a0,a5
    80001d40:	db0ff0ef          	jal	ra,800012f0 <Xil_In32>
    80001d44:	00050793          	mv	a5,a0
    80001d48:	0007879b          	sext.w	a5,a5
    80001d4c:	0027f793          	andi	a5,a5,2
    80001d50:	0007879b          	sext.w	a5,a5
    80001d54:	00078593          	mv	a1,a5
    80001d58:	00048513          	mv	a0,s1
    80001d5c:	dc0ff0ef          	jal	ra,8000131c <Xil_Out32>
    80001d60:	fc843783          	ld	a5,-56(s0)
    80001d64:	0107b783          	ld	a5,16(a5)
    80001d68:	10c78793          	addi	a5,a5,268
    80001d6c:	00078513          	mv	a0,a5
    80001d70:	d80ff0ef          	jal	ra,800012f0 <Xil_In32>
    80001d74:	00050793          	mv	a5,a0
    80001d78:	0007861b          	sext.w	a2,a5
    80001d7c:	fc843783          	ld	a5,-56(s0)
    80001d80:	0387b783          	ld	a5,56(a5)
    80001d84:	00178693          	addi	a3,a5,1
    80001d88:	fc843703          	ld	a4,-56(s0)
    80001d8c:	02d73c23          	sd	a3,56(a4)
    80001d90:	00060713          	mv	a4,a2
    80001d94:	0ff77713          	andi	a4,a4,255
    80001d98:	00e78023          	sb	a4,0(a5)
    80001d9c:	fc843783          	ld	a5,-56(s0)
    80001da0:	0487a783          	lw	a5,72(a5)
    80001da4:	fff7879b          	addiw	a5,a5,-1
    80001da8:	0007871b          	sext.w	a4,a5
    80001dac:	fc843783          	ld	a5,-56(s0)
    80001db0:	04e7a423          	sw	a4,72(a5)
    80001db4:	fc843783          	ld	a5,-56(s0)
    80001db8:	0037c783          	lbu	a5,3(a5)
    80001dbc:	0017879b          	addiw	a5,a5,1
    80001dc0:	0ff7f713          	andi	a4,a5,255
    80001dc4:	fc843783          	ld	a5,-56(s0)
    80001dc8:	00e781a3          	sb	a4,3(a5)
    80001dcc:	2280006f          	j	80001ff4 <DynRecvMasterData+0x38c>
    80001dd0:	fc843783          	ld	a5,-56(s0)
    80001dd4:	0487a703          	lw	a4,72(a5)
    80001dd8:	fd744783          	lbu	a5,-41(s0)
    80001ddc:	0007879b          	sext.w	a5,a5
    80001de0:	14f71463          	bne	a4,a5,80001f28 <DynRecvMasterData+0x2c0>
    80001de4:	fc843783          	ld	a5,-56(s0)
    80001de8:	0287a783          	lw	a5,40(a5)
    80001dec:	0027f793          	andi	a5,a5,2
    80001df0:	0007879b          	sext.w	a5,a5
    80001df4:	02078663          	beqz	a5,80001e20 <DynRecvMasterData+0x1b8>
    80001df8:	fd842783          	lw	a5,-40(s0)
    80001dfc:	0207e793          	ori	a5,a5,32
    80001e00:	fcf42c23          	sw	a5,-40(s0)
    80001e04:	fc843783          	ld	a5,-56(s0)
    80001e08:	0107b783          	ld	a5,16(a5)
    80001e0c:	10078793          	addi	a5,a5,256
    80001e10:	fd842703          	lw	a4,-40(s0)
    80001e14:	00070593          	mv	a1,a4
    80001e18:	00078513          	mv	a0,a5
    80001e1c:	d00ff0ef          	jal	ra,8000131c <Xil_Out32>
    80001e20:	fc040fa3          	sb	zero,-33(s0)
    80001e24:	07c0006f          	j	80001ea0 <DynRecvMasterData+0x238>
    80001e28:	fc843783          	ld	a5,-56(s0)
    80001e2c:	0107b783          	ld	a5,16(a5)
    80001e30:	10c78793          	addi	a5,a5,268
    80001e34:	00078513          	mv	a0,a5
    80001e38:	cb8ff0ef          	jal	ra,800012f0 <Xil_In32>
    80001e3c:	00050793          	mv	a5,a0
    80001e40:	0007861b          	sext.w	a2,a5
    80001e44:	fc843783          	ld	a5,-56(s0)
    80001e48:	0387b783          	ld	a5,56(a5)
    80001e4c:	00178693          	addi	a3,a5,1
    80001e50:	fc843703          	ld	a4,-56(s0)
    80001e54:	02d73c23          	sd	a3,56(a4)
    80001e58:	00060713          	mv	a4,a2
    80001e5c:	0ff77713          	andi	a4,a4,255
    80001e60:	00e78023          	sb	a4,0(a5)
    80001e64:	fc843783          	ld	a5,-56(s0)
    80001e68:	0487a783          	lw	a5,72(a5)
    80001e6c:	fff7879b          	addiw	a5,a5,-1
    80001e70:	0007871b          	sext.w	a4,a5
    80001e74:	fc843783          	ld	a5,-56(s0)
    80001e78:	04e7a423          	sw	a4,72(a5)
    80001e7c:	fc843783          	ld	a5,-56(s0)
    80001e80:	0037c783          	lbu	a5,3(a5)
    80001e84:	0017879b          	addiw	a5,a5,1
    80001e88:	0ff7f713          	andi	a4,a5,255
    80001e8c:	fc843783          	ld	a5,-56(s0)
    80001e90:	00e781a3          	sb	a4,3(a5)
    80001e94:	fdf44783          	lbu	a5,-33(s0)
    80001e98:	0017879b          	addiw	a5,a5,1
    80001e9c:	fcf40fa3          	sb	a5,-33(s0)
    80001ea0:	fdf44703          	lbu	a4,-33(s0)
    80001ea4:	fd744783          	lbu	a5,-41(s0)
    80001ea8:	0ff77713          	andi	a4,a4,255
    80001eac:	0ff7f793          	andi	a5,a5,255
    80001eb0:	f6f76ce3          	bltu	a4,a5,80001e28 <DynRecvMasterData+0x1c0>
    80001eb4:	fc843783          	ld	a5,-56(s0)
    80001eb8:	0107b783          	ld	a5,16(a5)
    80001ebc:	12078793          	addi	a5,a5,288
    80001ec0:	00000593          	li	a1,0
    80001ec4:	00078513          	mv	a0,a5
    80001ec8:	c54ff0ef          	jal	ra,8000131c <Xil_Out32>
    80001ecc:	fc843783          	ld	a5,-56(s0)
    80001ed0:	0107b783          	ld	a5,16(a5)
    80001ed4:	02878493          	addi	s1,a5,40
    80001ed8:	fc843783          	ld	a5,-56(s0)
    80001edc:	0107b783          	ld	a5,16(a5)
    80001ee0:	02878793          	addi	a5,a5,40
    80001ee4:	00078513          	mv	a0,a5
    80001ee8:	c08ff0ef          	jal	ra,800012f0 <Xil_In32>
    80001eec:	00050793          	mv	a5,a0
    80001ef0:	0007879b          	sext.w	a5,a5
    80001ef4:	ff77f793          	andi	a5,a5,-9
    80001ef8:	0007879b          	sext.w	a5,a5
    80001efc:	00078593          	mv	a1,a5
    80001f00:	00048513          	mv	a0,s1
    80001f04:	c18ff0ef          	jal	ra,8000131c <Xil_Out32>
    80001f08:	fc843783          	ld	a5,-56(s0)
    80001f0c:	0687b703          	ld	a4,104(a5)
    80001f10:	fc843783          	ld	a5,-56(s0)
    80001f14:	0707b783          	ld	a5,112(a5)
    80001f18:	00000593          	li	a1,0
    80001f1c:	00078513          	mv	a0,a5
    80001f20:	000700e7          	jalr	a4
    80001f24:	0d00006f          	j	80001ff4 <DynRecvMasterData+0x38c>
    80001f28:	fc843783          	ld	a5,-56(s0)
    80001f2c:	0487a783          	lw	a5,72(a5)
    80001f30:	0ff7f713          	andi	a4,a5,255
    80001f34:	fd744783          	lbu	a5,-41(s0)
    80001f38:	40f707bb          	subw	a5,a4,a5
    80001f3c:	0ff7f793          	andi	a5,a5,255
    80001f40:	fff7879b          	addiw	a5,a5,-1
    80001f44:	fcf40f23          	sb	a5,-34(s0)
    80001f48:	fde44783          	lbu	a5,-34(s0)
    80001f4c:	0ff7f713          	andi	a4,a5,255
    80001f50:	01000793          	li	a5,16
    80001f54:	00e7f663          	bgeu	a5,a4,80001f60 <DynRecvMasterData+0x2f8>
    80001f58:	01000793          	li	a5,16
    80001f5c:	fcf40f23          	sb	a5,-34(s0)
    80001f60:	fc040fa3          	sb	zero,-33(s0)
    80001f64:	07c0006f          	j	80001fe0 <DynRecvMasterData+0x378>
    80001f68:	fc843783          	ld	a5,-56(s0)
    80001f6c:	0107b783          	ld	a5,16(a5)
    80001f70:	10c78793          	addi	a5,a5,268
    80001f74:	00078513          	mv	a0,a5
    80001f78:	b78ff0ef          	jal	ra,800012f0 <Xil_In32>
    80001f7c:	00050793          	mv	a5,a0
    80001f80:	0007861b          	sext.w	a2,a5
    80001f84:	fc843783          	ld	a5,-56(s0)
    80001f88:	0387b783          	ld	a5,56(a5)
    80001f8c:	00178693          	addi	a3,a5,1
    80001f90:	fc843703          	ld	a4,-56(s0)
    80001f94:	02d73c23          	sd	a3,56(a4)
    80001f98:	00060713          	mv	a4,a2
    80001f9c:	0ff77713          	andi	a4,a4,255
    80001fa0:	00e78023          	sb	a4,0(a5)
    80001fa4:	fc843783          	ld	a5,-56(s0)
    80001fa8:	0487a783          	lw	a5,72(a5)
    80001fac:	fff7879b          	addiw	a5,a5,-1
    80001fb0:	0007871b          	sext.w	a4,a5
    80001fb4:	fc843783          	ld	a5,-56(s0)
    80001fb8:	04e7a423          	sw	a4,72(a5)
    80001fbc:	fc843783          	ld	a5,-56(s0)
    80001fc0:	0037c783          	lbu	a5,3(a5)
    80001fc4:	0017879b          	addiw	a5,a5,1
    80001fc8:	0ff7f713          	andi	a4,a5,255
    80001fcc:	fc843783          	ld	a5,-56(s0)
    80001fd0:	00e781a3          	sb	a4,3(a5)
    80001fd4:	fdf44783          	lbu	a5,-33(s0)
    80001fd8:	0017879b          	addiw	a5,a5,1
    80001fdc:	fcf40fa3          	sb	a5,-33(s0)
    80001fe0:	fdf44703          	lbu	a4,-33(s0)
    80001fe4:	fde44783          	lbu	a5,-34(s0)
    80001fe8:	0ff77713          	andi	a4,a4,255
    80001fec:	0ff7f793          	andi	a5,a5,255
    80001ff0:	f6f76ce3          	bltu	a4,a5,80001f68 <DynRecvMasterData+0x300>
    80001ff4:	00000013          	nop
    80001ff8:	03813083          	ld	ra,56(sp)
    80001ffc:	03013403          	ld	s0,48(sp)
    80002000:	02813483          	ld	s1,40(sp)
    80002004:	04010113          	addi	sp,sp,64
    80002008:	00008067          	ret

000000008000200c <IsBusBusy>:
    8000200c:	fc010113          	addi	sp,sp,-64
    80002010:	02113c23          	sd	ra,56(sp)
    80002014:	02813823          	sd	s0,48(sp)
    80002018:	02913423          	sd	s1,40(sp)
    8000201c:	04010413          	addi	s0,sp,64
    80002020:	fca43423          	sd	a0,-56(s0)
    80002024:	fc843783          	ld	a5,-56(s0)
    80002028:	0107b783          	ld	a5,16(a5)
    8000202c:	10078793          	addi	a5,a5,256
    80002030:	00078513          	mv	a0,a5
    80002034:	abcff0ef          	jal	ra,800012f0 <Xil_In32>
    80002038:	00050793          	mv	a5,a0
    8000203c:	fcf42e23          	sw	a5,-36(s0)
    80002040:	fc843783          	ld	a5,-56(s0)
    80002044:	0107b783          	ld	a5,16(a5)
    80002048:	10478793          	addi	a5,a5,260
    8000204c:	00078513          	mv	a0,a5
    80002050:	aa0ff0ef          	jal	ra,800012f0 <Xil_In32>
    80002054:	00050793          	mv	a5,a0
    80002058:	fcf42c23          	sw	a5,-40(s0)
    8000205c:	fdc42783          	lw	a5,-36(s0)
    80002060:	0047f793          	andi	a5,a5,4
    80002064:	0007879b          	sext.w	a5,a5
    80002068:	0a079c63          	bnez	a5,80002120 <IsBusBusy+0x114>
    8000206c:	fd842783          	lw	a5,-40(s0)
    80002070:	0047f793          	andi	a5,a5,4
    80002074:	0007879b          	sext.w	a5,a5
    80002078:	0a078463          	beqz	a5,80002120 <IsBusBusy+0x114>
    8000207c:	fc843783          	ld	a5,-56(s0)
    80002080:	00100713          	li	a4,1
    80002084:	04e7a623          	sw	a4,76(a5)
    80002088:	fc843783          	ld	a5,-56(s0)
    8000208c:	0107b783          	ld	a5,16(a5)
    80002090:	02078493          	addi	s1,a5,32
    80002094:	fc843783          	ld	a5,-56(s0)
    80002098:	0107b783          	ld	a5,16(a5)
    8000209c:	02078793          	addi	a5,a5,32
    800020a0:	00078513          	mv	a0,a5
    800020a4:	a4cff0ef          	jal	ra,800012f0 <Xil_In32>
    800020a8:	00050793          	mv	a5,a0
    800020ac:	0007879b          	sext.w	a5,a5
    800020b0:	0107f793          	andi	a5,a5,16
    800020b4:	0007879b          	sext.w	a5,a5
    800020b8:	00078593          	mv	a1,a5
    800020bc:	00048513          	mv	a0,s1
    800020c0:	a5cff0ef          	jal	ra,8000131c <Xil_Out32>
    800020c4:	fc843783          	ld	a5,-56(s0)
    800020c8:	0107b783          	ld	a5,16(a5)
    800020cc:	02878493          	addi	s1,a5,40
    800020d0:	fc843783          	ld	a5,-56(s0)
    800020d4:	0107b783          	ld	a5,16(a5)
    800020d8:	02878793          	addi	a5,a5,40
    800020dc:	00078513          	mv	a0,a5
    800020e0:	a10ff0ef          	jal	ra,800012f0 <Xil_In32>
    800020e4:	00050793          	mv	a5,a0
    800020e8:	0007879b          	sext.w	a5,a5
    800020ec:	0107e793          	ori	a5,a5,16
    800020f0:	0007879b          	sext.w	a5,a5
    800020f4:	00078593          	mv	a1,a5
    800020f8:	00048513          	mv	a0,s1
    800020fc:	a20ff0ef          	jal	ra,8000131c <Xil_Out32>
    80002100:	fc843783          	ld	a5,-56(s0)
    80002104:	0027c783          	lbu	a5,2(a5)
    80002108:	0017879b          	addiw	a5,a5,1
    8000210c:	0ff7f713          	andi	a4,a5,255
    80002110:	fc843783          	ld	a5,-56(s0)
    80002114:	00e78123          	sb	a4,2(a5)
    80002118:	00100793          	li	a5,1
    8000211c:	0080006f          	j	80002124 <IsBusBusy+0x118>
    80002120:	00000793          	li	a5,0
    80002124:	00078513          	mv	a0,a5
    80002128:	03813083          	ld	ra,56(sp)
    8000212c:	03013403          	ld	s0,48(sp)
    80002130:	02813483          	ld	s1,40(sp)
    80002134:	04010113          	addi	sp,sp,64
    80002138:	00008067          	ret

000000008000213c <XIic_DynamicInitialize>:
    8000213c:	fd010113          	addi	sp,sp,-48
    80002140:	02113423          	sd	ra,40(sp)
    80002144:	02813023          	sd	s0,32(sp)
    80002148:	03010413          	addi	s0,sp,48
    8000214c:	fca43c23          	sd	a0,-40(s0)
    80002150:	fd843783          	ld	a5,-40(s0)
    80002154:	02078c63          	beqz	a5,8000218c <XIic_DynamicInitialize+0x50>
    80002158:	00005797          	auipc	a5,0x5
    8000215c:	0e478793          	addi	a5,a5,228 # 8000723c <Xil_AssertStatus>
    80002160:	0007a023          	sw	zero,0(a5)
    80002164:	fd843783          	ld	a5,-40(s0)
    80002168:	0107b783          	ld	a5,16(a5)
    8000216c:	00078513          	mv	a0,a5
    80002170:	1d5010ef          	jal	ra,80003b44 <XIic_DynInit>
    80002174:	00050793          	mv	a5,a0
    80002178:	fef42623          	sw	a5,-20(s0)
    8000217c:	fec42783          	lw	a5,-20(s0)
    80002180:	0007879b          	sext.w	a5,a5
    80002184:	02078c63          	beqz	a5,800021bc <XIic_DynamicInitialize+0x80>
    80002188:	02c0006f          	j	800021b4 <XIic_DynamicInitialize+0x78>
    8000218c:	25200593          	li	a1,594
    80002190:	00005517          	auipc	a0,0x5
    80002194:	f3850513          	addi	a0,a0,-200 # 800070c8 <Xil_AssertSetCallback+0x94>
    80002198:	62d040ef          	jal	ra,80006fc4 <Xil_Assert>
    8000219c:	00005797          	auipc	a5,0x5
    800021a0:	0a078793          	addi	a5,a5,160 # 8000723c <Xil_AssertStatus>
    800021a4:	00100713          	li	a4,1
    800021a8:	00e7a023          	sw	a4,0(a5)
    800021ac:	00000793          	li	a5,0
    800021b0:	0100006f          	j	800021c0 <XIic_DynamicInitialize+0x84>
    800021b4:	00100793          	li	a5,1
    800021b8:	0080006f          	j	800021c0 <XIic_DynamicInitialize+0x84>
    800021bc:	00000793          	li	a5,0
    800021c0:	00078513          	mv	a0,a5
    800021c4:	02813083          	ld	ra,40(sp)
    800021c8:	02013403          	ld	s0,32(sp)
    800021cc:	03010113          	addi	sp,sp,48
    800021d0:	00008067          	ret

00000000800021d4 <Xil_In32>:
    800021d4:	fe010113          	addi	sp,sp,-32
    800021d8:	00813c23          	sd	s0,24(sp)
    800021dc:	02010413          	addi	s0,sp,32
    800021e0:	fea43423          	sd	a0,-24(s0)
    800021e4:	fe843783          	ld	a5,-24(s0)
    800021e8:	0007a783          	lw	a5,0(a5)
    800021ec:	0007879b          	sext.w	a5,a5
    800021f0:	00078513          	mv	a0,a5
    800021f4:	01813403          	ld	s0,24(sp)
    800021f8:	02010113          	addi	sp,sp,32
    800021fc:	00008067          	ret

0000000080002200 <Xil_Out32>:
    80002200:	fd010113          	addi	sp,sp,-48
    80002204:	02813423          	sd	s0,40(sp)
    80002208:	03010413          	addi	s0,sp,48
    8000220c:	fca43c23          	sd	a0,-40(s0)
    80002210:	00058793          	mv	a5,a1
    80002214:	fcf42a23          	sw	a5,-44(s0)
    80002218:	fd843783          	ld	a5,-40(s0)
    8000221c:	fef43423          	sd	a5,-24(s0)
    80002220:	fe843783          	ld	a5,-24(s0)
    80002224:	fd442703          	lw	a4,-44(s0)
    80002228:	00e7a023          	sw	a4,0(a5)
    8000222c:	00000013          	nop
    80002230:	02813403          	ld	s0,40(sp)
    80002234:	03010113          	addi	sp,sp,48
    80002238:	00008067          	ret

000000008000223c <XIic_InterruptHandler>:
    8000223c:	fb010113          	addi	sp,sp,-80
    80002240:	04113423          	sd	ra,72(sp)
    80002244:	04813023          	sd	s0,64(sp)
    80002248:	02913c23          	sd	s1,56(sp)
    8000224c:	05010413          	addi	s0,sp,80
    80002250:	faa43c23          	sd	a0,-72(s0)
    80002254:	fc043823          	sd	zero,-48(s0)
    80002258:	fc042e23          	sw	zero,-36(s0)
    8000225c:	fb843783          	ld	a5,-72(s0)
    80002260:	06078863          	beqz	a5,800022d0 <XIic_InterruptHandler+0x94>
    80002264:	00005797          	auipc	a5,0x5
    80002268:	fd878793          	addi	a5,a5,-40 # 8000723c <Xil_AssertStatus>
    8000226c:	0007a023          	sw	zero,0(a5)
    80002270:	fb843783          	ld	a5,-72(s0)
    80002274:	fcf43823          	sd	a5,-48(s0)
    80002278:	fd043783          	ld	a5,-48(s0)
    8000227c:	0107b783          	ld	a5,16(a5)
    80002280:	02078793          	addi	a5,a5,32
    80002284:	00078513          	mv	a0,a5
    80002288:	f4dff0ef          	jal	ra,800021d4 <Xil_In32>
    8000228c:	00050793          	mv	a5,a0
    80002290:	fcf42623          	sw	a5,-52(s0)
    80002294:	fd043783          	ld	a5,-48(s0)
    80002298:	0107b783          	ld	a5,16(a5)
    8000229c:	02878793          	addi	a5,a5,40
    800022a0:	00078513          	mv	a0,a5
    800022a4:	f31ff0ef          	jal	ra,800021d4 <Xil_In32>
    800022a8:	00050793          	mv	a5,a0
    800022ac:	fcf42423          	sw	a5,-56(s0)
    800022b0:	fcc42703          	lw	a4,-52(s0)
    800022b4:	fc842783          	lw	a5,-56(s0)
    800022b8:	00f777b3          	and	a5,a4,a5
    800022bc:	fcf42223          	sw	a5,-60(s0)
    800022c0:	fc442783          	lw	a5,-60(s0)
    800022c4:	0007879b          	sext.w	a5,a5
    800022c8:	36078e63          	beqz	a5,80002644 <XIic_InterruptHandler+0x408>
    800022cc:	0280006f          	j	800022f4 <XIic_InterruptHandler+0xb8>
    800022d0:	07900593          	li	a1,121
    800022d4:	00005517          	auipc	a0,0x5
    800022d8:	e0c50513          	addi	a0,a0,-500 # 800070e0 <Xil_AssertSetCallback+0xac>
    800022dc:	4e9040ef          	jal	ra,80006fc4 <Xil_Assert>
    800022e0:	00005797          	auipc	a5,0x5
    800022e4:	f5c78793          	addi	a5,a5,-164 # 8000723c <Xil_AssertStatus>
    800022e8:	00100713          	li	a4,1
    800022ec:	00e7a023          	sw	a4,0(a5)
    800022f0:	3580006f          	j	80002648 <XIic_InterruptHandler+0x40c>
    800022f4:	fd043783          	ld	a5,-48(s0)
    800022f8:	0107b783          	ld	a5,16(a5)
    800022fc:	01c78793          	addi	a5,a5,28
    80002300:	00078513          	mv	a0,a5
    80002304:	ed1ff0ef          	jal	ra,800021d4 <Xil_In32>
    80002308:	00050793          	mv	a5,a0
    8000230c:	0007879b          	sext.w	a5,a5
    80002310:	00078713          	mv	a4,a5
    80002314:	800007b7          	lui	a5,0x80000
    80002318:	32f71663          	bne	a4,a5,80002644 <XIic_InterruptHandler+0x408>
    8000231c:	fd043783          	ld	a5,-48(s0)
    80002320:	0087c783          	lbu	a5,8(a5) # ffffffff80000008 <Xil_AssertCallbackRoutine+0xfffffffeffff8d60>
    80002324:	0017879b          	addiw	a5,a5,1
    80002328:	0ff7f713          	andi	a4,a5,255
    8000232c:	fd043783          	ld	a5,-48(s0)
    80002330:	00e78423          	sb	a4,8(a5)
    80002334:	fd043783          	ld	a5,-48(s0)
    80002338:	0107b783          	ld	a5,16(a5)
    8000233c:	10478793          	addi	a5,a5,260
    80002340:	00078513          	mv	a0,a5
    80002344:	e91ff0ef          	jal	ra,800021d4 <Xil_In32>
    80002348:	00050793          	mv	a5,a0
    8000234c:	fcf42023          	sw	a5,-64(s0)
    80002350:	fc442783          	lw	a5,-60(s0)
    80002354:	0017f793          	andi	a5,a5,1
    80002358:	0007879b          	sext.w	a5,a5
    8000235c:	02078e63          	beqz	a5,80002398 <XIic_InterruptHandler+0x15c>
    80002360:	fd043783          	ld	a5,-48(s0)
    80002364:	0007c783          	lbu	a5,0(a5)
    80002368:	0017879b          	addiw	a5,a5,1
    8000236c:	0ff7f713          	andi	a4,a5,255
    80002370:	fd043783          	ld	a5,-48(s0)
    80002374:	00e78023          	sb	a4,0(a5)
    80002378:	00005797          	auipc	a5,0x5
    8000237c:	ea078793          	addi	a5,a5,-352 # 80007218 <XIic_ArbLostFuncPtr>
    80002380:	0007b783          	ld	a5,0(a5)
    80002384:	fd043503          	ld	a0,-48(s0)
    80002388:	000780e7          	jalr	a5
    8000238c:	00100793          	li	a5,1
    80002390:	fcf42e23          	sw	a5,-36(s0)
    80002394:	2900006f          	j	80002624 <XIic_InterruptHandler+0x3e8>
    80002398:	fc442783          	lw	a5,-60(s0)
    8000239c:	0087f793          	andi	a5,a5,8
    800023a0:	0007879b          	sext.w	a5,a5
    800023a4:	0a078063          	beqz	a5,80002444 <XIic_InterruptHandler+0x208>
    800023a8:	fd043783          	ld	a5,-48(s0)
    800023ac:	0487a783          	lw	a5,72(a5)
    800023b0:	00078713          	mv	a4,a5
    800023b4:	00100793          	li	a5,1
    800023b8:	02f71663          	bne	a4,a5,800023e4 <XIic_InterruptHandler+0x1a8>
    800023bc:	fc442783          	lw	a5,-60(s0)
    800023c0:	0027f793          	andi	a5,a5,2
    800023c4:	0007879b          	sext.w	a5,a5
    800023c8:	00078e63          	beqz	a5,800023e4 <XIic_InterruptHandler+0x1a8>
    800023cc:	fd043783          	ld	a5,-48(s0)
    800023d0:	0107b783          	ld	a5,16(a5)
    800023d4:	02078793          	addi	a5,a5,32
    800023d8:	00200593          	li	a1,2
    800023dc:	00078513          	mv	a0,a5
    800023e0:	e21ff0ef          	jal	ra,80002200 <Xil_Out32>
    800023e4:	fd043783          	ld	a5,-48(s0)
    800023e8:	0047c783          	lbu	a5,4(a5)
    800023ec:	0017879b          	addiw	a5,a5,1
    800023f0:	0ff7f713          	andi	a4,a5,255
    800023f4:	fd043783          	ld	a5,-48(s0)
    800023f8:	00e78223          	sb	a4,4(a5)
    800023fc:	fc042783          	lw	a5,-64(s0)
    80002400:	0027f793          	andi	a5,a5,2
    80002404:	0007879b          	sext.w	a5,a5
    80002408:	00078e63          	beqz	a5,80002424 <XIic_InterruptHandler+0x1e8>
    8000240c:	00005797          	auipc	a5,0x5
    80002410:	dec78793          	addi	a5,a5,-532 # 800071f8 <XIic_RecvSlaveFuncPtr>
    80002414:	0007b783          	ld	a5,0(a5)
    80002418:	fd043503          	ld	a0,-48(s0)
    8000241c:	000780e7          	jalr	a5
    80002420:	0180006f          	j	80002438 <XIic_InterruptHandler+0x1fc>
    80002424:	00005797          	auipc	a5,0x5
    80002428:	de478793          	addi	a5,a5,-540 # 80007208 <XIic_RecvMasterFuncPtr>
    8000242c:	0007b783          	ld	a5,0(a5)
    80002430:	fd043503          	ld	a0,-48(s0)
    80002434:	000780e7          	jalr	a5
    80002438:	00800793          	li	a5,8
    8000243c:	fcf42e23          	sw	a5,-36(s0)
    80002440:	1e40006f          	j	80002624 <XIic_InterruptHandler+0x3e8>
    80002444:	fc442783          	lw	a5,-60(s0)
    80002448:	0027f793          	andi	a5,a5,2
    8000244c:	0007879b          	sext.w	a5,a5
    80002450:	02078863          	beqz	a5,80002480 <XIic_InterruptHandler+0x244>
    80002454:	fd043783          	ld	a5,-48(s0)
    80002458:	0077c783          	lbu	a5,7(a5)
    8000245c:	0017879b          	addiw	a5,a5,1
    80002460:	0ff7f713          	andi	a4,a5,255
    80002464:	fd043783          	ld	a5,-48(s0)
    80002468:	00e783a3          	sb	a4,7(a5)
    8000246c:	fd043503          	ld	a0,-48(s0)
    80002470:	334000ef          	jal	ra,800027a4 <TxErrorHandler>
    80002474:	00200793          	li	a5,2
    80002478:	fcf42e23          	sw	a5,-36(s0)
    8000247c:	1a80006f          	j	80002624 <XIic_InterruptHandler+0x3e8>
    80002480:	fc442783          	lw	a5,-60(s0)
    80002484:	0407f793          	andi	a5,a5,64
    80002488:	0007879b          	sext.w	a5,a5
    8000248c:	02078263          	beqz	a5,800024b0 <XIic_InterruptHandler+0x274>
    80002490:	00005797          	auipc	a5,0x5
    80002494:	d6078793          	addi	a5,a5,-672 # 800071f0 <XIic_NotAddrAsSlaveFuncPtr>
    80002498:	0007b783          	ld	a5,0(a5)
    8000249c:	fd043503          	ld	a0,-48(s0)
    800024a0:	000780e7          	jalr	a5
    800024a4:	04000793          	li	a5,64
    800024a8:	fcf42e23          	sw	a5,-36(s0)
    800024ac:	1780006f          	j	80002624 <XIic_InterruptHandler+0x3e8>
    800024b0:	fc442783          	lw	a5,-60(s0)
    800024b4:	0207f793          	andi	a5,a5,32
    800024b8:	0007879b          	sext.w	a5,a5
    800024bc:	02078263          	beqz	a5,800024e0 <XIic_InterruptHandler+0x2a4>
    800024c0:	00005797          	auipc	a5,0x5
    800024c4:	d2878793          	addi	a5,a5,-728 # 800071e8 <XIic_AddrAsSlaveFuncPtr>
    800024c8:	0007b783          	ld	a5,0(a5)
    800024cc:	fd043503          	ld	a0,-48(s0)
    800024d0:	000780e7          	jalr	a5
    800024d4:	02000793          	li	a5,32
    800024d8:	fcf42e23          	sw	a5,-36(s0)
    800024dc:	1480006f          	j	80002624 <XIic_InterruptHandler+0x3e8>
    800024e0:	fc442783          	lw	a5,-60(s0)
    800024e4:	0107f793          	andi	a5,a5,16
    800024e8:	0007879b          	sext.w	a5,a5
    800024ec:	08078e63          	beqz	a5,80002588 <XIic_InterruptHandler+0x34c>
    800024f0:	fd043783          	ld	a5,-48(s0)
    800024f4:	04c7a783          	lw	a5,76(a5)
    800024f8:	00078713          	mv	a4,a5
    800024fc:	00100793          	li	a5,1
    80002500:	02f71263          	bne	a4,a5,80002524 <XIic_InterruptHandler+0x2e8>
    80002504:	00005797          	auipc	a5,0x5
    80002508:	d1c78793          	addi	a5,a5,-740 # 80007220 <XIic_BusNotBusyFuncPtr>
    8000250c:	0007b783          	ld	a5,0(a5)
    80002510:	fd043503          	ld	a0,-48(s0)
    80002514:	000780e7          	jalr	a5
    80002518:	fd043783          	ld	a5,-48(s0)
    8000251c:	0407a623          	sw	zero,76(a5)
    80002520:	0200006f          	j	80002540 <XIic_InterruptHandler+0x304>
    80002524:	fd043783          	ld	a5,-48(s0)
    80002528:	0787b703          	ld	a4,120(a5)
    8000252c:	fd043783          	ld	a5,-48(s0)
    80002530:	0807b783          	ld	a5,128(a5)
    80002534:	00000593          	li	a1,0
    80002538:	00078513          	mv	a0,a5
    8000253c:	000700e7          	jalr	a4
    80002540:	01000793          	li	a5,16
    80002544:	fcf42e23          	sw	a5,-36(s0)
    80002548:	fd043783          	ld	a5,-48(s0)
    8000254c:	0107b783          	ld	a5,16(a5)
    80002550:	02878493          	addi	s1,a5,40
    80002554:	fd043783          	ld	a5,-48(s0)
    80002558:	0107b783          	ld	a5,16(a5)
    8000255c:	02878793          	addi	a5,a5,40
    80002560:	00078513          	mv	a0,a5
    80002564:	c71ff0ef          	jal	ra,800021d4 <Xil_In32>
    80002568:	00050793          	mv	a5,a0
    8000256c:	0007879b          	sext.w	a5,a5
    80002570:	fef7f793          	andi	a5,a5,-17
    80002574:	0007879b          	sext.w	a5,a5
    80002578:	00078593          	mv	a1,a5
    8000257c:	00048513          	mv	a0,s1
    80002580:	c81ff0ef          	jal	ra,80002200 <Xil_Out32>
    80002584:	0a00006f          	j	80002624 <XIic_InterruptHandler+0x3e8>
    80002588:	fc442783          	lw	a5,-60(s0)
    8000258c:	0047f793          	andi	a5,a5,4
    80002590:	0007879b          	sext.w	a5,a5
    80002594:	00079a63          	bnez	a5,800025a8 <XIic_InterruptHandler+0x36c>
    80002598:	fc442783          	lw	a5,-60(s0)
    8000259c:	0807f793          	andi	a5,a5,128
    800025a0:	0007879b          	sext.w	a5,a5
    800025a4:	08078063          	beqz	a5,80002624 <XIic_InterruptHandler+0x3e8>
    800025a8:	fd043783          	ld	a5,-48(s0)
    800025ac:	0067c783          	lbu	a5,6(a5)
    800025b0:	0017879b          	addiw	a5,a5,1
    800025b4:	0ff7f713          	andi	a4,a5,255
    800025b8:	fd043783          	ld	a5,-48(s0)
    800025bc:	00e78323          	sb	a4,6(a5)
    800025c0:	fc042783          	lw	a5,-64(s0)
    800025c4:	0027f793          	andi	a5,a5,2
    800025c8:	0007879b          	sext.w	a5,a5
    800025cc:	00078e63          	beqz	a5,800025e8 <XIic_InterruptHandler+0x3ac>
    800025d0:	00005797          	auipc	a5,0x5
    800025d4:	c3078793          	addi	a5,a5,-976 # 80007200 <XIic_SendSlaveFuncPtr>
    800025d8:	0007b783          	ld	a5,0(a5)
    800025dc:	fd043503          	ld	a0,-48(s0)
    800025e0:	000780e7          	jalr	a5
    800025e4:	0180006f          	j	800025fc <XIic_InterruptHandler+0x3c0>
    800025e8:	00005797          	auipc	a5,0x5
    800025ec:	c2878793          	addi	a5,a5,-984 # 80007210 <XIic_SendMasterFuncPtr>
    800025f0:	0007b783          	ld	a5,0(a5)
    800025f4:	fd043503          	ld	a0,-48(s0)
    800025f8:	000780e7          	jalr	a5
    800025fc:	fd043783          	ld	a5,-48(s0)
    80002600:	0107b783          	ld	a5,16(a5)
    80002604:	02078793          	addi	a5,a5,32
    80002608:	00078513          	mv	a0,a5
    8000260c:	bc9ff0ef          	jal	ra,800021d4 <Xil_In32>
    80002610:	00050793          	mv	a5,a0
    80002614:	fcf42223          	sw	a5,-60(s0)
    80002618:	fc442783          	lw	a5,-60(s0)
    8000261c:	0847f793          	andi	a5,a5,132
    80002620:	fcf42e23          	sw	a5,-36(s0)
    80002624:	fd043783          	ld	a5,-48(s0)
    80002628:	0107b783          	ld	a5,16(a5)
    8000262c:	02078793          	addi	a5,a5,32
    80002630:	fdc42703          	lw	a4,-36(s0)
    80002634:	00070593          	mv	a1,a4
    80002638:	00078513          	mv	a0,a5
    8000263c:	bc5ff0ef          	jal	ra,80002200 <Xil_Out32>
    80002640:	0080006f          	j	80002648 <XIic_InterruptHandler+0x40c>
    80002644:	00000013          	nop
    80002648:	04813083          	ld	ra,72(sp)
    8000264c:	04013403          	ld	s0,64(sp)
    80002650:	03813483          	ld	s1,56(sp)
    80002654:	05010113          	addi	sp,sp,80
    80002658:	00008067          	ret

000000008000265c <XIic_TransmitFifoFill>:
    8000265c:	fd010113          	addi	sp,sp,-48
    80002660:	02113423          	sd	ra,40(sp)
    80002664:	02813023          	sd	s0,32(sp)
    80002668:	03010413          	addi	s0,sp,48
    8000266c:	fca43c23          	sd	a0,-40(s0)
    80002670:	00058793          	mv	a5,a1
    80002674:	fcf42a23          	sw	a5,-44(s0)
    80002678:	fd843783          	ld	a5,-40(s0)
    8000267c:	0107b783          	ld	a5,16(a5)
    80002680:	11478793          	addi	a5,a5,276
    80002684:	00078513          	mv	a0,a5
    80002688:	b4dff0ef          	jal	ra,800021d4 <Xil_In32>
    8000268c:	00050793          	mv	a5,a0
    80002690:	0007879b          	sext.w	a5,a5
    80002694:	0ff7f793          	andi	a5,a5,255
    80002698:	00f00713          	li	a4,15
    8000269c:	40f707bb          	subw	a5,a4,a5
    800026a0:	fef403a3          	sb	a5,-25(s0)
    800026a4:	fd843783          	ld	a5,-40(s0)
    800026a8:	0447a703          	lw	a4,68(a5)
    800026ac:	fe744783          	lbu	a5,-25(s0)
    800026b0:	0007879b          	sext.w	a5,a5
    800026b4:	00e7d863          	bge	a5,a4,800026c4 <XIic_TransmitFifoFill+0x68>
    800026b8:	fe744783          	lbu	a5,-25(s0)
    800026bc:	fef42423          	sw	a5,-24(s0)
    800026c0:	0440006f          	j	80002704 <XIic_TransmitFifoFill+0xa8>
    800026c4:	fd843783          	ld	a5,-40(s0)
    800026c8:	0287a783          	lw	a5,40(a5)
    800026cc:	0027f793          	andi	a5,a5,2
    800026d0:	0007879b          	sext.w	a5,a5
    800026d4:	00079863          	bnez	a5,800026e4 <XIic_TransmitFifoFill+0x88>
    800026d8:	fd442783          	lw	a5,-44(s0)
    800026dc:	0007879b          	sext.w	a5,a5
    800026e0:	00079a63          	bnez	a5,800026f4 <XIic_TransmitFifoFill+0x98>
    800026e4:	fd843783          	ld	a5,-40(s0)
    800026e8:	0447a783          	lw	a5,68(a5)
    800026ec:	fef42423          	sw	a5,-24(s0)
    800026f0:	0140006f          	j	80002704 <XIic_TransmitFifoFill+0xa8>
    800026f4:	fd843783          	ld	a5,-40(s0)
    800026f8:	0447a783          	lw	a5,68(a5)
    800026fc:	fff7879b          	addiw	a5,a5,-1
    80002700:	fef42423          	sw	a5,-24(s0)
    80002704:	fe042623          	sw	zero,-20(s0)
    80002708:	0740006f          	j	8000277c <XIic_TransmitFifoFill+0x120>
    8000270c:	fd843783          	ld	a5,-40(s0)
    80002710:	0107b783          	ld	a5,16(a5)
    80002714:	10878613          	addi	a2,a5,264
    80002718:	fd843783          	ld	a5,-40(s0)
    8000271c:	0307b783          	ld	a5,48(a5)
    80002720:	00178693          	addi	a3,a5,1
    80002724:	fd843703          	ld	a4,-40(s0)
    80002728:	02d73823          	sd	a3,48(a4)
    8000272c:	0007c783          	lbu	a5,0(a5)
    80002730:	0007879b          	sext.w	a5,a5
    80002734:	00078593          	mv	a1,a5
    80002738:	00060513          	mv	a0,a2
    8000273c:	ac5ff0ef          	jal	ra,80002200 <Xil_Out32>
    80002740:	fd843783          	ld	a5,-40(s0)
    80002744:	0447a783          	lw	a5,68(a5)
    80002748:	fff7879b          	addiw	a5,a5,-1
    8000274c:	0007871b          	sext.w	a4,a5
    80002750:	fd843783          	ld	a5,-40(s0)
    80002754:	04e7a223          	sw	a4,68(a5)
    80002758:	fd843783          	ld	a5,-40(s0)
    8000275c:	0057c783          	lbu	a5,5(a5)
    80002760:	0017879b          	addiw	a5,a5,1
    80002764:	0ff7f713          	andi	a4,a5,255
    80002768:	fd843783          	ld	a5,-40(s0)
    8000276c:	00e782a3          	sb	a4,5(a5)
    80002770:	fec42783          	lw	a5,-20(s0)
    80002774:	0017879b          	addiw	a5,a5,1
    80002778:	fef42623          	sw	a5,-20(s0)
    8000277c:	fec42703          	lw	a4,-20(s0)
    80002780:	fe842783          	lw	a5,-24(s0)
    80002784:	0007071b          	sext.w	a4,a4
    80002788:	0007879b          	sext.w	a5,a5
    8000278c:	f8f740e3          	blt	a4,a5,8000270c <XIic_TransmitFifoFill+0xb0>
    80002790:	00000013          	nop
    80002794:	02813083          	ld	ra,40(sp)
    80002798:	02013403          	ld	s0,32(sp)
    8000279c:	03010113          	addi	sp,sp,48
    800027a0:	00008067          	ret

00000000800027a4 <TxErrorHandler>:
    800027a4:	fc010113          	addi	sp,sp,-64
    800027a8:	02113c23          	sd	ra,56(sp)
    800027ac:	02813823          	sd	s0,48(sp)
    800027b0:	02913423          	sd	s1,40(sp)
    800027b4:	04010413          	addi	s0,sp,64
    800027b8:	fca43423          	sd	a0,-56(s0)
    800027bc:	fc843783          	ld	a5,-56(s0)
    800027c0:	0387b783          	ld	a5,56(a5)
    800027c4:	10079263          	bnez	a5,800028c8 <TxErrorHandler+0x124>
    800027c8:	fc843783          	ld	a5,-56(s0)
    800027cc:	0107b783          	ld	a5,16(a5)
    800027d0:	10078793          	addi	a5,a5,256
    800027d4:	00078513          	mv	a0,a5
    800027d8:	9fdff0ef          	jal	ra,800021d4 <Xil_In32>
    800027dc:	00050793          	mv	a5,a0
    800027e0:	fcf42823          	sw	a5,-48(s0)
    800027e4:	fc843783          	ld	a5,-56(s0)
    800027e8:	0107b783          	ld	a5,16(a5)
    800027ec:	10078713          	addi	a4,a5,256
    800027f0:	fd042783          	lw	a5,-48(s0)
    800027f4:	0027e793          	ori	a5,a5,2
    800027f8:	0007879b          	sext.w	a5,a5
    800027fc:	00078593          	mv	a1,a5
    80002800:	00070513          	mv	a0,a4
    80002804:	9fdff0ef          	jal	ra,80002200 <Xil_Out32>
    80002808:	fc843783          	ld	a5,-56(s0)
    8000280c:	0107b783          	ld	a5,16(a5)
    80002810:	10078793          	addi	a5,a5,256
    80002814:	fd042703          	lw	a4,-48(s0)
    80002818:	00070593          	mv	a1,a4
    8000281c:	00078513          	mv	a0,a5
    80002820:	9e1ff0ef          	jal	ra,80002200 <Xil_Out32>
    80002824:	fc843783          	ld	a5,-56(s0)
    80002828:	0107b783          	ld	a5,16(a5)
    8000282c:	02878493          	addi	s1,a5,40
    80002830:	fc843783          	ld	a5,-56(s0)
    80002834:	0107b783          	ld	a5,16(a5)
    80002838:	02878793          	addi	a5,a5,40
    8000283c:	00078513          	mv	a0,a5
    80002840:	995ff0ef          	jal	ra,800021d4 <Xil_In32>
    80002844:	00050793          	mv	a5,a0
    80002848:	0007879b          	sext.w	a5,a5
    8000284c:	f717f793          	andi	a5,a5,-143
    80002850:	0007879b          	sext.w	a5,a5
    80002854:	00078593          	mv	a1,a5
    80002858:	00048513          	mv	a0,s1
    8000285c:	9a5ff0ef          	jal	ra,80002200 <Xil_Out32>
    80002860:	fc843783          	ld	a5,-56(s0)
    80002864:	0107b783          	ld	a5,16(a5)
    80002868:	02078793          	addi	a5,a5,32
    8000286c:	00078513          	mv	a0,a5
    80002870:	965ff0ef          	jal	ra,800021d4 <Xil_In32>
    80002874:	00050793          	mv	a5,a0
    80002878:	fcf42e23          	sw	a5,-36(s0)
    8000287c:	fdc42783          	lw	a5,-36(s0)
    80002880:	0207f793          	andi	a5,a5,32
    80002884:	0007879b          	sext.w	a5,a5
    80002888:	02079263          	bnez	a5,800028ac <TxErrorHandler+0x108>
    8000288c:	fc843783          	ld	a5,-56(s0)
    80002890:	0587b703          	ld	a4,88(a5)
    80002894:	fc843783          	ld	a5,-56(s0)
    80002898:	0607b783          	ld	a5,96(a5)
    8000289c:	00400593          	li	a1,4
    800028a0:	00078513          	mv	a0,a5
    800028a4:	000700e7          	jalr	a4
    800028a8:	1d80006f          	j	80002a80 <TxErrorHandler+0x2dc>
    800028ac:	fc843783          	ld	a5,-56(s0)
    800028b0:	0077c783          	lbu	a5,7(a5)
    800028b4:	fff7879b          	addiw	a5,a5,-1
    800028b8:	0ff7f713          	andi	a4,a5,255
    800028bc:	fc843783          	ld	a5,-56(s0)
    800028c0:	00e783a3          	sb	a4,7(a5)
    800028c4:	1bc0006f          	j	80002a80 <TxErrorHandler+0x2dc>
    800028c8:	fc843783          	ld	a5,-56(s0)
    800028cc:	0107b783          	ld	a5,16(a5)
    800028d0:	02078793          	addi	a5,a5,32
    800028d4:	00078513          	mv	a0,a5
    800028d8:	8fdff0ef          	jal	ra,800021d4 <Xil_In32>
    800028dc:	00050793          	mv	a5,a0
    800028e0:	fcf42e23          	sw	a5,-36(s0)
    800028e4:	fdc42783          	lw	a5,-36(s0)
    800028e8:	0087f793          	andi	a5,a5,8
    800028ec:	0007879b          	sext.w	a5,a5
    800028f0:	04078263          	beqz	a5,80002934 <TxErrorHandler+0x190>
    800028f4:	fc843783          	ld	a5,-56(s0)
    800028f8:	0107b783          	ld	a5,16(a5)
    800028fc:	02878493          	addi	s1,a5,40
    80002900:	fc843783          	ld	a5,-56(s0)
    80002904:	0107b783          	ld	a5,16(a5)
    80002908:	02878793          	addi	a5,a5,40
    8000290c:	00078513          	mv	a0,a5
    80002910:	8c5ff0ef          	jal	ra,800021d4 <Xil_In32>
    80002914:	00050793          	mv	a5,a0
    80002918:	0007879b          	sext.w	a5,a5
    8000291c:	ffd7f793          	andi	a5,a5,-3
    80002920:	0007879b          	sext.w	a5,a5
    80002924:	00078593          	mv	a1,a5
    80002928:	00048513          	mv	a0,s1
    8000292c:	8d5ff0ef          	jal	ra,80002200 <Xil_Out32>
    80002930:	1500006f          	j	80002a80 <TxErrorHandler+0x2dc>
    80002934:	fc843783          	ld	a5,-56(s0)
    80002938:	0107b783          	ld	a5,16(a5)
    8000293c:	10078793          	addi	a5,a5,256
    80002940:	00078513          	mv	a0,a5
    80002944:	891ff0ef          	jal	ra,800021d4 <Xil_In32>
    80002948:	00050793          	mv	a5,a0
    8000294c:	fcf42c23          	sw	a5,-40(s0)
    80002950:	fc843783          	ld	a5,-56(s0)
    80002954:	0107b783          	ld	a5,16(a5)
    80002958:	10078713          	addi	a4,a5,256
    8000295c:	fd842783          	lw	a5,-40(s0)
    80002960:	0027e793          	ori	a5,a5,2
    80002964:	0007879b          	sext.w	a5,a5
    80002968:	00078593          	mv	a1,a5
    8000296c:	00070513          	mv	a0,a4
    80002970:	891ff0ef          	jal	ra,80002200 <Xil_Out32>
    80002974:	fc843783          	ld	a5,-56(s0)
    80002978:	0107b783          	ld	a5,16(a5)
    8000297c:	10078793          	addi	a5,a5,256
    80002980:	fd842703          	lw	a4,-40(s0)
    80002984:	00070593          	mv	a1,a4
    80002988:	00078513          	mv	a0,a5
    8000298c:	875ff0ef          	jal	ra,80002200 <Xil_Out32>
    80002990:	fc843783          	ld	a5,-56(s0)
    80002994:	0107b783          	ld	a5,16(a5)
    80002998:	02878493          	addi	s1,a5,40
    8000299c:	fc843783          	ld	a5,-56(s0)
    800029a0:	0107b783          	ld	a5,16(a5)
    800029a4:	02878793          	addi	a5,a5,40
    800029a8:	00078513          	mv	a0,a5
    800029ac:	829ff0ef          	jal	ra,800021d4 <Xil_In32>
    800029b0:	00050793          	mv	a5,a0
    800029b4:	0007879b          	sext.w	a5,a5
    800029b8:	f717f793          	andi	a5,a5,-143
    800029bc:	0007879b          	sext.w	a5,a5
    800029c0:	00078593          	mv	a1,a5
    800029c4:	00048513          	mv	a0,s1
    800029c8:	839ff0ef          	jal	ra,80002200 <Xil_Out32>
    800029cc:	fc843783          	ld	a5,-56(s0)
    800029d0:	0107b783          	ld	a5,16(a5)
    800029d4:	02078493          	addi	s1,a5,32
    800029d8:	fc843783          	ld	a5,-56(s0)
    800029dc:	0107b783          	ld	a5,16(a5)
    800029e0:	02078793          	addi	a5,a5,32
    800029e4:	00078513          	mv	a0,a5
    800029e8:	fecff0ef          	jal	ra,800021d4 <Xil_In32>
    800029ec:	00050793          	mv	a5,a0
    800029f0:	0007879b          	sext.w	a5,a5
    800029f4:	08e7f793          	andi	a5,a5,142
    800029f8:	0007879b          	sext.w	a5,a5
    800029fc:	00078593          	mv	a1,a5
    80002a00:	00048513          	mv	a0,s1
    80002a04:	ffcff0ef          	jal	ra,80002200 <Xil_Out32>
    80002a08:	fc843783          	ld	a5,-56(s0)
    80002a0c:	0107b783          	ld	a5,16(a5)
    80002a10:	10078793          	addi	a5,a5,256
    80002a14:	00078513          	mv	a0,a5
    80002a18:	fbcff0ef          	jal	ra,800021d4 <Xil_In32>
    80002a1c:	00050793          	mv	a5,a0
    80002a20:	fcf42a23          	sw	a5,-44(s0)
    80002a24:	fd442783          	lw	a5,-44(s0)
    80002a28:	ffb7f793          	andi	a5,a5,-5
    80002a2c:	fcf42a23          	sw	a5,-44(s0)
    80002a30:	fc843783          	ld	a5,-56(s0)
    80002a34:	0107b783          	ld	a5,16(a5)
    80002a38:	10078793          	addi	a5,a5,256
    80002a3c:	fd442703          	lw	a4,-44(s0)
    80002a40:	00070593          	mv	a1,a4
    80002a44:	00078513          	mv	a0,a5
    80002a48:	fb8ff0ef          	jal	ra,80002200 <Xil_Out32>
    80002a4c:	fc843783          	ld	a5,-56(s0)
    80002a50:	0107b783          	ld	a5,16(a5)
    80002a54:	12078793          	addi	a5,a5,288
    80002a58:	00000593          	li	a1,0
    80002a5c:	00078513          	mv	a0,a5
    80002a60:	fa0ff0ef          	jal	ra,80002200 <Xil_Out32>
    80002a64:	fc843783          	ld	a5,-56(s0)
    80002a68:	0587b703          	ld	a4,88(a5)
    80002a6c:	fc843783          	ld	a5,-56(s0)
    80002a70:	0607b783          	ld	a5,96(a5)
    80002a74:	00400593          	li	a1,4
    80002a78:	00078513          	mv	a0,a5
    80002a7c:	000700e7          	jalr	a4
    80002a80:	03813083          	ld	ra,56(sp)
    80002a84:	03013403          	ld	s0,48(sp)
    80002a88:	02813483          	ld	s1,40(sp)
    80002a8c:	04010113          	addi	sp,sp,64
    80002a90:	00008067          	ret

0000000080002a94 <StubFunction>:
    80002a94:	fe010113          	addi	sp,sp,-32
    80002a98:	00113c23          	sd	ra,24(sp)
    80002a9c:	00813823          	sd	s0,16(sp)
    80002aa0:	02010413          	addi	s0,sp,32
    80002aa4:	fea43423          	sd	a0,-24(s0)
    80002aa8:	1ad00593          	li	a1,429
    80002aac:	00004517          	auipc	a0,0x4
    80002ab0:	63450513          	addi	a0,a0,1588 # 800070e0 <Xil_AssertSetCallback+0xac>
    80002ab4:	510040ef          	jal	ra,80006fc4 <Xil_Assert>
    80002ab8:	00004797          	auipc	a5,0x4
    80002abc:	78478793          	addi	a5,a5,1924 # 8000723c <Xil_AssertStatus>
    80002ac0:	00100713          	li	a4,1
    80002ac4:	00e7a023          	sw	a4,0(a5)
    80002ac8:	00000013          	nop
    80002acc:	01813083          	ld	ra,24(sp)
    80002ad0:	01013403          	ld	s0,16(sp)
    80002ad4:	02010113          	addi	sp,sp,32
    80002ad8:	00008067          	ret

0000000080002adc <Xil_In32>:
    80002adc:	fe010113          	addi	sp,sp,-32
    80002ae0:	00813c23          	sd	s0,24(sp)
    80002ae4:	02010413          	addi	s0,sp,32
    80002ae8:	fea43423          	sd	a0,-24(s0)
    80002aec:	fe843783          	ld	a5,-24(s0)
    80002af0:	0007a783          	lw	a5,0(a5)
    80002af4:	0007879b          	sext.w	a5,a5
    80002af8:	00078513          	mv	a0,a5
    80002afc:	01813403          	ld	s0,24(sp)
    80002b00:	02010113          	addi	sp,sp,32
    80002b04:	00008067          	ret

0000000080002b08 <Xil_Out32>:
    80002b08:	fd010113          	addi	sp,sp,-48
    80002b0c:	02813423          	sd	s0,40(sp)
    80002b10:	03010413          	addi	s0,sp,48
    80002b14:	fca43c23          	sd	a0,-40(s0)
    80002b18:	00058793          	mv	a5,a1
    80002b1c:	fcf42a23          	sw	a5,-44(s0)
    80002b20:	fd843783          	ld	a5,-40(s0)
    80002b24:	fef43423          	sd	a5,-24(s0)
    80002b28:	fe843783          	ld	a5,-24(s0)
    80002b2c:	fd442703          	lw	a4,-44(s0)
    80002b30:	00e7a023          	sw	a4,0(a5)
    80002b34:	00000013          	nop
    80002b38:	02813403          	ld	s0,40(sp)
    80002b3c:	03010113          	addi	sp,sp,48
    80002b40:	00008067          	ret

0000000080002b44 <XIic_Recv>:
    80002b44:	fb010113          	addi	sp,sp,-80
    80002b48:	04113423          	sd	ra,72(sp)
    80002b4c:	04813023          	sd	s0,64(sp)
    80002b50:	02913c23          	sd	s1,56(sp)
    80002b54:	05010413          	addi	s0,sp,80
    80002b58:	fca43423          	sd	a0,-56(s0)
    80002b5c:	00058793          	mv	a5,a1
    80002b60:	fac43c23          	sd	a2,-72(s0)
    80002b64:	fcf403a3          	sb	a5,-57(s0)
    80002b68:	00068793          	mv	a5,a3
    80002b6c:	fcf42023          	sw	a5,-64(s0)
    80002b70:	00070793          	mv	a5,a4
    80002b74:	fcf40323          	sb	a5,-58(s0)
    80002b78:	fc843783          	ld	a5,-56(s0)
    80002b7c:	02078493          	addi	s1,a5,32
    80002b80:	fc843783          	ld	a5,-56(s0)
    80002b84:	02078793          	addi	a5,a5,32
    80002b88:	00078513          	mv	a0,a5
    80002b8c:	f51ff0ef          	jal	ra,80002adc <Xil_In32>
    80002b90:	00050793          	mv	a5,a0
    80002b94:	0007879b          	sext.w	a5,a5
    80002b98:	00b7f793          	andi	a5,a5,11
    80002b9c:	0007879b          	sext.w	a5,a5
    80002ba0:	00078593          	mv	a1,a5
    80002ba4:	00048513          	mv	a0,s1
    80002ba8:	f61ff0ef          	jal	ra,80002b08 <Xil_Out32>
    80002bac:	fc843783          	ld	a5,-56(s0)
    80002bb0:	12078793          	addi	a5,a5,288
    80002bb4:	00000593          	li	a1,0
    80002bb8:	00078513          	mv	a0,a5
    80002bbc:	f4dff0ef          	jal	ra,80002b08 <Xil_Out32>
    80002bc0:	fc843783          	ld	a5,-56(s0)
    80002bc4:	10078793          	addi	a5,a5,256
    80002bc8:	00078513          	mv	a0,a5
    80002bcc:	f11ff0ef          	jal	ra,80002adc <Xil_In32>
    80002bd0:	00050793          	mv	a5,a0
    80002bd4:	fcf42e23          	sw	a5,-36(s0)
    80002bd8:	fdc42783          	lw	a5,-36(s0)
    80002bdc:	0207f793          	andi	a5,a5,32
    80002be0:	0007879b          	sext.w	a5,a5
    80002be4:	0e079e63          	bnez	a5,80002ce0 <XIic_Recv+0x19c>
    80002be8:	fc744783          	lbu	a5,-57(s0)
    80002bec:	0017979b          	slliw	a5,a5,0x1
    80002bf0:	fcf40d23          	sb	a5,-38(s0)
    80002bf4:	fda44783          	lbu	a5,-38(s0)
    80002bf8:	0017e793          	ori	a5,a5,1
    80002bfc:	fcf40d23          	sb	a5,-38(s0)
    80002c00:	fc843783          	ld	a5,-56(s0)
    80002c04:	10878793          	addi	a5,a5,264
    80002c08:	fda44703          	lbu	a4,-38(s0)
    80002c0c:	0007071b          	sext.w	a4,a4
    80002c10:	00070593          	mv	a1,a4
    80002c14:	00078513          	mv	a0,a5
    80002c18:	ef1ff0ef          	jal	ra,80002b08 <Xil_Out32>
    80002c1c:	00500793          	li	a5,5
    80002c20:	fcf42e23          	sw	a5,-36(s0)
    80002c24:	fc042783          	lw	a5,-64(s0)
    80002c28:	0007871b          	sext.w	a4,a5
    80002c2c:	00100793          	li	a5,1
    80002c30:	00f71863          	bne	a4,a5,80002c40 <XIic_Recv+0xfc>
    80002c34:	fdc42783          	lw	a5,-36(s0)
    80002c38:	0107e793          	ori	a5,a5,16
    80002c3c:	fcf42e23          	sw	a5,-36(s0)
    80002c40:	fc843783          	ld	a5,-56(s0)
    80002c44:	10078793          	addi	a5,a5,256
    80002c48:	fdc42703          	lw	a4,-36(s0)
    80002c4c:	00070593          	mv	a1,a4
    80002c50:	00078513          	mv	a0,a5
    80002c54:	eb5ff0ef          	jal	ra,80002b08 <Xil_Out32>
    80002c58:	fc843783          	ld	a5,-56(s0)
    80002c5c:	10478793          	addi	a5,a5,260
    80002c60:	00078513          	mv	a0,a5
    80002c64:	e79ff0ef          	jal	ra,80002adc <Xil_In32>
    80002c68:	00050793          	mv	a5,a0
    80002c6c:	0007879b          	sext.w	a5,a5
    80002c70:	fcf42823          	sw	a5,-48(s0)
    80002c74:	0200006f          	j	80002c94 <XIic_Recv+0x150>
    80002c78:	fc843783          	ld	a5,-56(s0)
    80002c7c:	10478793          	addi	a5,a5,260
    80002c80:	00078513          	mv	a0,a5
    80002c84:	e59ff0ef          	jal	ra,80002adc <Xil_In32>
    80002c88:	00050793          	mv	a5,a0
    80002c8c:	0007879b          	sext.w	a5,a5
    80002c90:	fcf42823          	sw	a5,-48(s0)
    80002c94:	fd042783          	lw	a5,-48(s0)
    80002c98:	0007879b          	sext.w	a5,a5
    80002c9c:	0047f793          	andi	a5,a5,4
    80002ca0:	0007879b          	sext.w	a5,a5
    80002ca4:	fc078ae3          	beqz	a5,80002c78 <XIic_Recv+0x134>
    80002ca8:	fc843783          	ld	a5,-56(s0)
    80002cac:	02078493          	addi	s1,a5,32
    80002cb0:	fc843783          	ld	a5,-56(s0)
    80002cb4:	02078793          	addi	a5,a5,32
    80002cb8:	00078513          	mv	a0,a5
    80002cbc:	e21ff0ef          	jal	ra,80002adc <Xil_In32>
    80002cc0:	00050793          	mv	a5,a0
    80002cc4:	0007879b          	sext.w	a5,a5
    80002cc8:	0107f793          	andi	a5,a5,16
    80002ccc:	0007879b          	sext.w	a5,a5
    80002cd0:	00078593          	mv	a1,a5
    80002cd4:	00048513          	mv	a0,s1
    80002cd8:	e31ff0ef          	jal	ra,80002b08 <Xil_Out32>
    80002cdc:	0780006f          	j	80002d54 <XIic_Recv+0x210>
    80002ce0:	fdc42783          	lw	a5,-36(s0)
    80002ce4:	ff77f793          	andi	a5,a5,-9
    80002ce8:	fcf42e23          	sw	a5,-36(s0)
    80002cec:	fc042783          	lw	a5,-64(s0)
    80002cf0:	0007871b          	sext.w	a4,a5
    80002cf4:	00100793          	li	a5,1
    80002cf8:	00f71863          	bne	a4,a5,80002d08 <XIic_Recv+0x1c4>
    80002cfc:	fdc42783          	lw	a5,-36(s0)
    80002d00:	0107e793          	ori	a5,a5,16
    80002d04:	fcf42e23          	sw	a5,-36(s0)
    80002d08:	fc843783          	ld	a5,-56(s0)
    80002d0c:	10078793          	addi	a5,a5,256
    80002d10:	fdc42703          	lw	a4,-36(s0)
    80002d14:	00070593          	mv	a1,a4
    80002d18:	00078513          	mv	a0,a5
    80002d1c:	dedff0ef          	jal	ra,80002b08 <Xil_Out32>
    80002d20:	fc744783          	lbu	a5,-57(s0)
    80002d24:	0017979b          	slliw	a5,a5,0x1
    80002d28:	fcf40da3          	sb	a5,-37(s0)
    80002d2c:	fdb44783          	lbu	a5,-37(s0)
    80002d30:	0017e793          	ori	a5,a5,1
    80002d34:	fcf40da3          	sb	a5,-37(s0)
    80002d38:	fc843783          	ld	a5,-56(s0)
    80002d3c:	10878793          	addi	a5,a5,264
    80002d40:	fdb44703          	lbu	a4,-37(s0)
    80002d44:	0007071b          	sext.w	a4,a4
    80002d48:	00070593          	mv	a1,a4
    80002d4c:	00078513          	mv	a0,a5
    80002d50:	db9ff0ef          	jal	ra,80002b08 <Xil_Out32>
    80002d54:	fc644703          	lbu	a4,-58(s0)
    80002d58:	fc042783          	lw	a5,-64(s0)
    80002d5c:	00070693          	mv	a3,a4
    80002d60:	00078613          	mv	a2,a5
    80002d64:	fb843583          	ld	a1,-72(s0)
    80002d68:	fc843503          	ld	a0,-56(s0)
    80002d6c:	08c000ef          	jal	ra,80002df8 <RecvData>
    80002d70:	00050793          	mv	a5,a0
    80002d74:	fcf42a23          	sw	a5,-44(s0)
    80002d78:	fc843783          	ld	a5,-56(s0)
    80002d7c:	10078793          	addi	a5,a5,256
    80002d80:	00078513          	mv	a0,a5
    80002d84:	d59ff0ef          	jal	ra,80002adc <Xil_In32>
    80002d88:	00050793          	mv	a5,a0
    80002d8c:	fcf42e23          	sw	a5,-36(s0)
    80002d90:	fdc42783          	lw	a5,-36(s0)
    80002d94:	0207f793          	andi	a5,a5,32
    80002d98:	0007879b          	sext.w	a5,a5
    80002d9c:	00079c63          	bnez	a5,80002db4 <XIic_Recv+0x270>
    80002da0:	fc843783          	ld	a5,-56(s0)
    80002da4:	10078793          	addi	a5,a5,256
    80002da8:	00000593          	li	a1,0
    80002dac:	00078513          	mv	a0,a5
    80002db0:	d59ff0ef          	jal	ra,80002b08 <Xil_Out32>
    80002db4:	fc843503          	ld	a0,-56(s0)
    80002db8:	6f9000ef          	jal	ra,80003cb0 <XIic_WaitBusFree>
    80002dbc:	00050793          	mv	a5,a0
    80002dc0:	0007879b          	sext.w	a5,a5
    80002dc4:	00078663          	beqz	a5,80002dd0 <XIic_Recv+0x28c>
    80002dc8:	00000793          	li	a5,0
    80002dcc:	0140006f          	j	80002de0 <XIic_Recv+0x29c>
    80002dd0:	fc042703          	lw	a4,-64(s0)
    80002dd4:	fd442783          	lw	a5,-44(s0)
    80002dd8:	40f707bb          	subw	a5,a4,a5
    80002ddc:	0007879b          	sext.w	a5,a5
    80002de0:	00078513          	mv	a0,a5
    80002de4:	04813083          	ld	ra,72(sp)
    80002de8:	04013403          	ld	s0,64(sp)
    80002dec:	03813483          	ld	s1,56(sp)
    80002df0:	05010113          	addi	sp,sp,80
    80002df4:	00008067          	ret

0000000080002df8 <RecvData>:
    80002df8:	fb010113          	addi	sp,sp,-80
    80002dfc:	04113423          	sd	ra,72(sp)
    80002e00:	04813023          	sd	s0,64(sp)
    80002e04:	02913c23          	sd	s1,56(sp)
    80002e08:	05010413          	addi	s0,sp,80
    80002e0c:	fca43423          	sd	a0,-56(s0)
    80002e10:	fcb43023          	sd	a1,-64(s0)
    80002e14:	00060793          	mv	a5,a2
    80002e18:	00068713          	mv	a4,a3
    80002e1c:	faf42e23          	sw	a5,-68(s0)
    80002e20:	00070793          	mv	a5,a4
    80002e24:	faf40da3          	sb	a5,-69(s0)
    80002e28:	18c0006f          	j	80002fb4 <RecvData+0x1bc>
    80002e2c:	fbc42783          	lw	a5,-68(s0)
    80002e30:	0007871b          	sext.w	a4,a5
    80002e34:	00100793          	li	a5,1
    80002e38:	00f71863          	bne	a4,a5,80002e48 <RecvData+0x50>
    80002e3c:	01100793          	li	a5,17
    80002e40:	fcf42e23          	sw	a5,-36(s0)
    80002e44:	00c0006f          	j	80002e50 <RecvData+0x58>
    80002e48:	01300793          	li	a5,19
    80002e4c:	fcf42e23          	sw	a5,-36(s0)
    80002e50:	fc843783          	ld	a5,-56(s0)
    80002e54:	02078793          	addi	a5,a5,32
    80002e58:	00078513          	mv	a0,a5
    80002e5c:	c81ff0ef          	jal	ra,80002adc <Xil_In32>
    80002e60:	00050793          	mv	a5,a0
    80002e64:	fcf42c23          	sw	a5,-40(s0)
    80002e68:	fd842783          	lw	a5,-40(s0)
    80002e6c:	0087f793          	andi	a5,a5,8
    80002e70:	0007879b          	sext.w	a5,a5
    80002e74:	02079063          	bnez	a5,80002e94 <RecvData+0x9c>
    80002e78:	fd842703          	lw	a4,-40(s0)
    80002e7c:	fdc42783          	lw	a5,-36(s0)
    80002e80:	00f777b3          	and	a5,a4,a5
    80002e84:	0007879b          	sext.w	a5,a5
    80002e88:	fc0784e3          	beqz	a5,80002e50 <RecvData+0x58>
    80002e8c:	fbc42783          	lw	a5,-68(s0)
    80002e90:	16c0006f          	j	80002ffc <RecvData+0x204>
    80002e94:	00000013          	nop
    80002e98:	fc843783          	ld	a5,-56(s0)
    80002e9c:	10078793          	addi	a5,a5,256
    80002ea0:	00078513          	mv	a0,a5
    80002ea4:	c39ff0ef          	jal	ra,80002adc <Xil_In32>
    80002ea8:	00050793          	mv	a5,a0
    80002eac:	fcf42a23          	sw	a5,-44(s0)
    80002eb0:	fbc42783          	lw	a5,-68(s0)
    80002eb4:	0007871b          	sext.w	a4,a5
    80002eb8:	00100793          	li	a5,1
    80002ebc:	02f71263          	bne	a4,a5,80002ee0 <RecvData+0xe8>
    80002ec0:	fbb44783          	lbu	a5,-69(s0)
    80002ec4:	0ff7f793          	andi	a5,a5,255
    80002ec8:	00079c63          	bnez	a5,80002ee0 <RecvData+0xe8>
    80002ecc:	fc843783          	ld	a5,-56(s0)
    80002ed0:	10078793          	addi	a5,a5,256
    80002ed4:	00100593          	li	a1,1
    80002ed8:	00078513          	mv	a0,a5
    80002edc:	c2dff0ef          	jal	ra,80002b08 <Xil_Out32>
    80002ee0:	fbc42783          	lw	a5,-68(s0)
    80002ee4:	0007871b          	sext.w	a4,a5
    80002ee8:	00200793          	li	a5,2
    80002eec:	02f71263          	bne	a4,a5,80002f10 <RecvData+0x118>
    80002ef0:	fc843783          	ld	a5,-56(s0)
    80002ef4:	10078713          	addi	a4,a5,256
    80002ef8:	fd442783          	lw	a5,-44(s0)
    80002efc:	0107e793          	ori	a5,a5,16
    80002f00:	0007879b          	sext.w	a5,a5
    80002f04:	00078593          	mv	a1,a5
    80002f08:	00070513          	mv	a0,a4
    80002f0c:	bfdff0ef          	jal	ra,80002b08 <Xil_Out32>
    80002f10:	fc843783          	ld	a5,-56(s0)
    80002f14:	10c78793          	addi	a5,a5,268
    80002f18:	00078513          	mv	a0,a5
    80002f1c:	bc1ff0ef          	jal	ra,80002adc <Xil_In32>
    80002f20:	00050793          	mv	a5,a0
    80002f24:	0007869b          	sext.w	a3,a5
    80002f28:	fc043783          	ld	a5,-64(s0)
    80002f2c:	00178713          	addi	a4,a5,1
    80002f30:	fce43023          	sd	a4,-64(s0)
    80002f34:	00068713          	mv	a4,a3
    80002f38:	0ff77713          	andi	a4,a4,255
    80002f3c:	00e78023          	sb	a4,0(a5)
    80002f40:	fbc42783          	lw	a5,-68(s0)
    80002f44:	0007871b          	sext.w	a4,a5
    80002f48:	00100793          	li	a5,1
    80002f4c:	02f71463          	bne	a4,a5,80002f74 <RecvData+0x17c>
    80002f50:	fbb44783          	lbu	a5,-69(s0)
    80002f54:	0ff7f713          	andi	a4,a5,255
    80002f58:	00100793          	li	a5,1
    80002f5c:	00f71c63          	bne	a4,a5,80002f74 <RecvData+0x17c>
    80002f60:	fc843783          	ld	a5,-56(s0)
    80002f64:	10078793          	addi	a5,a5,256
    80002f68:	02500593          	li	a1,37
    80002f6c:	00078513          	mv	a0,a5
    80002f70:	b99ff0ef          	jal	ra,80002b08 <Xil_Out32>
    80002f74:	fc843783          	ld	a5,-56(s0)
    80002f78:	02078493          	addi	s1,a5,32
    80002f7c:	fc843783          	ld	a5,-56(s0)
    80002f80:	02078793          	addi	a5,a5,32
    80002f84:	00078513          	mv	a0,a5
    80002f88:	b55ff0ef          	jal	ra,80002adc <Xil_In32>
    80002f8c:	00050793          	mv	a5,a0
    80002f90:	0007879b          	sext.w	a5,a5
    80002f94:	00b7f793          	andi	a5,a5,11
    80002f98:	0007879b          	sext.w	a5,a5
    80002f9c:	00078593          	mv	a1,a5
    80002fa0:	00048513          	mv	a0,s1
    80002fa4:	b65ff0ef          	jal	ra,80002b08 <Xil_Out32>
    80002fa8:	fbc42783          	lw	a5,-68(s0)
    80002fac:	fff7879b          	addiw	a5,a5,-1
    80002fb0:	faf42e23          	sw	a5,-68(s0)
    80002fb4:	fbc42783          	lw	a5,-68(s0)
    80002fb8:	0007879b          	sext.w	a5,a5
    80002fbc:	e60798e3          	bnez	a5,80002e2c <RecvData+0x34>
    80002fc0:	fbb44783          	lbu	a5,-69(s0)
    80002fc4:	0ff7f793          	andi	a5,a5,255
    80002fc8:	02079863          	bnez	a5,80002ff8 <RecvData+0x200>
    80002fcc:	fc843783          	ld	a5,-56(s0)
    80002fd0:	02078793          	addi	a5,a5,32
    80002fd4:	00078513          	mv	a0,a5
    80002fd8:	b05ff0ef          	jal	ra,80002adc <Xil_In32>
    80002fdc:	00050793          	mv	a5,a0
    80002fe0:	0007879b          	sext.w	a5,a5
    80002fe4:	0107f793          	andi	a5,a5,16
    80002fe8:	0007879b          	sext.w	a5,a5
    80002fec:	00079463          	bnez	a5,80002ff4 <RecvData+0x1fc>
    80002ff0:	fddff06f          	j	80002fcc <RecvData+0x1d4>
    80002ff4:	00000013          	nop
    80002ff8:	fbc42783          	lw	a5,-68(s0)
    80002ffc:	00078513          	mv	a0,a5
    80003000:	04813083          	ld	ra,72(sp)
    80003004:	04013403          	ld	s0,64(sp)
    80003008:	03813483          	ld	s1,56(sp)
    8000300c:	05010113          	addi	sp,sp,80
    80003010:	00008067          	ret

0000000080003014 <XIic_Send>:
    80003014:	fb010113          	addi	sp,sp,-80
    80003018:	04113423          	sd	ra,72(sp)
    8000301c:	04813023          	sd	s0,64(sp)
    80003020:	02913c23          	sd	s1,56(sp)
    80003024:	05010413          	addi	s0,sp,80
    80003028:	fca43423          	sd	a0,-56(s0)
    8000302c:	00058793          	mv	a5,a1
    80003030:	fac43c23          	sd	a2,-72(s0)
    80003034:	fcf403a3          	sb	a5,-57(s0)
    80003038:	00068793          	mv	a5,a3
    8000303c:	fcf42023          	sw	a5,-64(s0)
    80003040:	00070793          	mv	a5,a4
    80003044:	fcf40323          	sb	a5,-58(s0)
    80003048:	fc843503          	ld	a0,-56(s0)
    8000304c:	465000ef          	jal	ra,80003cb0 <XIic_WaitBusFree>
    80003050:	00050793          	mv	a5,a0
    80003054:	0007879b          	sext.w	a5,a5
    80003058:	00078663          	beqz	a5,80003064 <XIic_Send+0x50>
    8000305c:	00000793          	li	a5,0
    80003060:	27c0006f          	j	800032dc <XIic_Send+0x2c8>
    80003064:	fc843783          	ld	a5,-56(s0)
    80003068:	10078793          	addi	a5,a5,256
    8000306c:	00078513          	mv	a0,a5
    80003070:	a6dff0ef          	jal	ra,80002adc <Xil_In32>
    80003074:	00050793          	mv	a5,a0
    80003078:	fcf42e23          	sw	a5,-36(s0)
    8000307c:	fdc42783          	lw	a5,-36(s0)
    80003080:	0207f793          	andi	a5,a5,32
    80003084:	0007879b          	sext.w	a5,a5
    80003088:	10079463          	bnez	a5,80003190 <XIic_Send+0x17c>
    8000308c:	fc744783          	lbu	a5,-57(s0)
    80003090:	0017979b          	slliw	a5,a5,0x1
    80003094:	fcf40d23          	sb	a5,-38(s0)
    80003098:	fda44783          	lbu	a5,-38(s0)
    8000309c:	ffe7f793          	andi	a5,a5,-2
    800030a0:	fcf40d23          	sb	a5,-38(s0)
    800030a4:	fc843783          	ld	a5,-56(s0)
    800030a8:	10878793          	addi	a5,a5,264
    800030ac:	fda44703          	lbu	a4,-38(s0)
    800030b0:	0007071b          	sext.w	a4,a4
    800030b4:	00070593          	mv	a1,a4
    800030b8:	00078513          	mv	a0,a5
    800030bc:	a4dff0ef          	jal	ra,80002b08 <Xil_Out32>
    800030c0:	fc843783          	ld	a5,-56(s0)
    800030c4:	02078493          	addi	s1,a5,32
    800030c8:	fc843783          	ld	a5,-56(s0)
    800030cc:	02078793          	addi	a5,a5,32
    800030d0:	00078513          	mv	a0,a5
    800030d4:	a09ff0ef          	jal	ra,80002adc <Xil_In32>
    800030d8:	00050793          	mv	a5,a0
    800030dc:	0007879b          	sext.w	a5,a5
    800030e0:	0077f793          	andi	a5,a5,7
    800030e4:	0007879b          	sext.w	a5,a5
    800030e8:	00078593          	mv	a1,a5
    800030ec:	00048513          	mv	a0,s1
    800030f0:	a19ff0ef          	jal	ra,80002b08 <Xil_Out32>
    800030f4:	fc843783          	ld	a5,-56(s0)
    800030f8:	10078793          	addi	a5,a5,256
    800030fc:	00d00593          	li	a1,13
    80003100:	00078513          	mv	a0,a5
    80003104:	a05ff0ef          	jal	ra,80002b08 <Xil_Out32>
    80003108:	fc843783          	ld	a5,-56(s0)
    8000310c:	10478793          	addi	a5,a5,260
    80003110:	00078513          	mv	a0,a5
    80003114:	9c9ff0ef          	jal	ra,80002adc <Xil_In32>
    80003118:	00050793          	mv	a5,a0
    8000311c:	0007879b          	sext.w	a5,a5
    80003120:	fcf42823          	sw	a5,-48(s0)
    80003124:	0200006f          	j	80003144 <XIic_Send+0x130>
    80003128:	fc843783          	ld	a5,-56(s0)
    8000312c:	10478793          	addi	a5,a5,260
    80003130:	00078513          	mv	a0,a5
    80003134:	9a9ff0ef          	jal	ra,80002adc <Xil_In32>
    80003138:	00050793          	mv	a5,a0
    8000313c:	0007879b          	sext.w	a5,a5
    80003140:	fcf42823          	sw	a5,-48(s0)
    80003144:	fd042783          	lw	a5,-48(s0)
    80003148:	0007879b          	sext.w	a5,a5
    8000314c:	0047f793          	andi	a5,a5,4
    80003150:	0007879b          	sext.w	a5,a5
    80003154:	fc078ae3          	beqz	a5,80003128 <XIic_Send+0x114>
    80003158:	fc843783          	ld	a5,-56(s0)
    8000315c:	02078493          	addi	s1,a5,32
    80003160:	fc843783          	ld	a5,-56(s0)
    80003164:	02078793          	addi	a5,a5,32
    80003168:	00078513          	mv	a0,a5
    8000316c:	971ff0ef          	jal	ra,80002adc <Xil_In32>
    80003170:	00050793          	mv	a5,a0
    80003174:	0007879b          	sext.w	a5,a5
    80003178:	0107f793          	andi	a5,a5,16
    8000317c:	0007879b          	sext.w	a5,a5
    80003180:	00078593          	mv	a1,a5
    80003184:	00048513          	mv	a0,s1
    80003188:	981ff0ef          	jal	ra,80002b08 <Xil_Out32>
    8000318c:	0380006f          	j	800031c4 <XIic_Send+0x1b0>
    80003190:	fc744783          	lbu	a5,-57(s0)
    80003194:	0017979b          	slliw	a5,a5,0x1
    80003198:	fcf40da3          	sb	a5,-37(s0)
    8000319c:	fdb44783          	lbu	a5,-37(s0)
    800031a0:	ffe7f793          	andi	a5,a5,-2
    800031a4:	fcf40da3          	sb	a5,-37(s0)
    800031a8:	fc843783          	ld	a5,-56(s0)
    800031ac:	10878793          	addi	a5,a5,264
    800031b0:	fdb44703          	lbu	a4,-37(s0)
    800031b4:	0007071b          	sext.w	a4,a4
    800031b8:	00070593          	mv	a1,a4
    800031bc:	00078513          	mv	a0,a5
    800031c0:	949ff0ef          	jal	ra,80002b08 <Xil_Out32>
    800031c4:	fc644703          	lbu	a4,-58(s0)
    800031c8:	fc042783          	lw	a5,-64(s0)
    800031cc:	00070693          	mv	a3,a4
    800031d0:	00078613          	mv	a2,a5
    800031d4:	fb843583          	ld	a1,-72(s0)
    800031d8:	fc843503          	ld	a0,-56(s0)
    800031dc:	118000ef          	jal	ra,800032f4 <SendData>
    800031e0:	00050793          	mv	a5,a0
    800031e4:	fcf42a23          	sw	a5,-44(s0)
    800031e8:	fc843783          	ld	a5,-56(s0)
    800031ec:	10078793          	addi	a5,a5,256
    800031f0:	00078513          	mv	a0,a5
    800031f4:	8e9ff0ef          	jal	ra,80002adc <Xil_In32>
    800031f8:	00050793          	mv	a5,a0
    800031fc:	fcf42e23          	sw	a5,-36(s0)
    80003200:	fdc42783          	lw	a5,-36(s0)
    80003204:	0207f793          	andi	a5,a5,32
    80003208:	0007879b          	sext.w	a5,a5
    8000320c:	0c079063          	bnez	a5,800032cc <XIic_Send+0x2b8>
    80003210:	fdc42783          	lw	a5,-36(s0)
    80003214:	0047f793          	andi	a5,a5,4
    80003218:	0007879b          	sext.w	a5,a5
    8000321c:	02078263          	beqz	a5,80003240 <XIic_Send+0x22c>
    80003220:	fc843783          	ld	a5,-56(s0)
    80003224:	10078713          	addi	a4,a5,256
    80003228:	fdc42783          	lw	a5,-36(s0)
    8000322c:	ffb7f793          	andi	a5,a5,-5
    80003230:	0007879b          	sext.w	a5,a5
    80003234:	00078593          	mv	a1,a5
    80003238:	00070513          	mv	a0,a4
    8000323c:	8cdff0ef          	jal	ra,80002b08 <Xil_Out32>
    80003240:	fc843783          	ld	a5,-56(s0)
    80003244:	10478793          	addi	a5,a5,260
    80003248:	00078513          	mv	a0,a5
    8000324c:	891ff0ef          	jal	ra,80002adc <Xil_In32>
    80003250:	00050793          	mv	a5,a0
    80003254:	0007879b          	sext.w	a5,a5
    80003258:	0027f793          	andi	a5,a5,2
    8000325c:	0007879b          	sext.w	a5,a5
    80003260:	00078e63          	beqz	a5,8000327c <XIic_Send+0x268>
    80003264:	fc843783          	ld	a5,-56(s0)
    80003268:	10078793          	addi	a5,a5,256
    8000326c:	00000593          	li	a1,0
    80003270:	00078513          	mv	a0,a5
    80003274:	895ff0ef          	jal	ra,80002b08 <Xil_Out32>
    80003278:	0540006f          	j	800032cc <XIic_Send+0x2b8>
    8000327c:	fc843783          	ld	a5,-56(s0)
    80003280:	10478793          	addi	a5,a5,260
    80003284:	00078513          	mv	a0,a5
    80003288:	855ff0ef          	jal	ra,80002adc <Xil_In32>
    8000328c:	00050793          	mv	a5,a0
    80003290:	0007879b          	sext.w	a5,a5
    80003294:	fcf42823          	sw	a5,-48(s0)
    80003298:	0200006f          	j	800032b8 <XIic_Send+0x2a4>
    8000329c:	fc843783          	ld	a5,-56(s0)
    800032a0:	10478793          	addi	a5,a5,260
    800032a4:	00078513          	mv	a0,a5
    800032a8:	835ff0ef          	jal	ra,80002adc <Xil_In32>
    800032ac:	00050793          	mv	a5,a0
    800032b0:	0007879b          	sext.w	a5,a5
    800032b4:	fcf42823          	sw	a5,-48(s0)
    800032b8:	fd042783          	lw	a5,-48(s0)
    800032bc:	0007879b          	sext.w	a5,a5
    800032c0:	0047f793          	andi	a5,a5,4
    800032c4:	0007879b          	sext.w	a5,a5
    800032c8:	fc079ae3          	bnez	a5,8000329c <XIic_Send+0x288>
    800032cc:	fc042703          	lw	a4,-64(s0)
    800032d0:	fd442783          	lw	a5,-44(s0)
    800032d4:	40f707bb          	subw	a5,a4,a5
    800032d8:	0007879b          	sext.w	a5,a5
    800032dc:	00078513          	mv	a0,a5
    800032e0:	04813083          	ld	ra,72(sp)
    800032e4:	04013403          	ld	s0,64(sp)
    800032e8:	03813483          	ld	s1,56(sp)
    800032ec:	05010113          	addi	sp,sp,80
    800032f0:	00008067          	ret

00000000800032f4 <SendData>:
    800032f4:	fb010113          	addi	sp,sp,-80
    800032f8:	04113423          	sd	ra,72(sp)
    800032fc:	04813023          	sd	s0,64(sp)
    80003300:	02913c23          	sd	s1,56(sp)
    80003304:	05010413          	addi	s0,sp,80
    80003308:	fca43423          	sd	a0,-56(s0)
    8000330c:	fcb43023          	sd	a1,-64(s0)
    80003310:	00060793          	mv	a5,a2
    80003314:	00068713          	mv	a4,a3
    80003318:	faf42e23          	sw	a5,-68(s0)
    8000331c:	00070793          	mv	a5,a4
    80003320:	faf40da3          	sb	a5,-69(s0)
    80003324:	1900006f          	j	800034b4 <SendData+0x1c0>
    80003328:	fc843783          	ld	a5,-56(s0)
    8000332c:	02078793          	addi	a5,a5,32
    80003330:	00078513          	mv	a0,a5
    80003334:	fa8ff0ef          	jal	ra,80002adc <Xil_In32>
    80003338:	00050793          	mv	a5,a0
    8000333c:	fcf42e23          	sw	a5,-36(s0)
    80003340:	fdc42783          	lw	a5,-36(s0)
    80003344:	0137f793          	andi	a5,a5,19
    80003348:	0007879b          	sext.w	a5,a5
    8000334c:	00078663          	beqz	a5,80003358 <SendData+0x64>
    80003350:	fbc42783          	lw	a5,-68(s0)
    80003354:	1a80006f          	j	800034fc <SendData+0x208>
    80003358:	fdc42783          	lw	a5,-36(s0)
    8000335c:	0047f793          	andi	a5,a5,4
    80003360:	0007879b          	sext.w	a5,a5
    80003364:	00079463          	bnez	a5,8000336c <SendData+0x78>
    80003368:	fc1ff06f          	j	80003328 <SendData+0x34>
    8000336c:	00000013          	nop
    80003370:	fbc42783          	lw	a5,-68(s0)
    80003374:	0007871b          	sext.w	a4,a5
    80003378:	00100793          	li	a5,1
    8000337c:	02e7f863          	bgeu	a5,a4,800033ac <SendData+0xb8>
    80003380:	fc843783          	ld	a5,-56(s0)
    80003384:	10878693          	addi	a3,a5,264
    80003388:	fc043783          	ld	a5,-64(s0)
    8000338c:	00178713          	addi	a4,a5,1
    80003390:	fce43023          	sd	a4,-64(s0)
    80003394:	0007c783          	lbu	a5,0(a5)
    80003398:	0007879b          	sext.w	a5,a5
    8000339c:	00078593          	mv	a1,a5
    800033a0:	00068513          	mv	a0,a3
    800033a4:	f64ff0ef          	jal	ra,80002b08 <Xil_Out32>
    800033a8:	0cc0006f          	j	80003474 <SendData+0x180>
    800033ac:	fbb44783          	lbu	a5,-69(s0)
    800033b0:	0ff7f793          	andi	a5,a5,255
    800033b4:	00079c63          	bnez	a5,800033cc <SendData+0xd8>
    800033b8:	fc843783          	ld	a5,-56(s0)
    800033bc:	10078793          	addi	a5,a5,256
    800033c0:	00900593          	li	a1,9
    800033c4:	00078513          	mv	a0,a5
    800033c8:	f40ff0ef          	jal	ra,80002b08 <Xil_Out32>
    800033cc:	fc843783          	ld	a5,-56(s0)
    800033d0:	10878693          	addi	a3,a5,264
    800033d4:	fc043783          	ld	a5,-64(s0)
    800033d8:	00178713          	addi	a4,a5,1
    800033dc:	fce43023          	sd	a4,-64(s0)
    800033e0:	0007c783          	lbu	a5,0(a5)
    800033e4:	0007879b          	sext.w	a5,a5
    800033e8:	00078593          	mv	a1,a5
    800033ec:	00068513          	mv	a0,a3
    800033f0:	f18ff0ef          	jal	ra,80002b08 <Xil_Out32>
    800033f4:	fbb44783          	lbu	a5,-69(s0)
    800033f8:	0ff7f713          	andi	a4,a5,255
    800033fc:	00100793          	li	a5,1
    80003400:	06f71a63          	bne	a4,a5,80003474 <SendData+0x180>
    80003404:	fc843783          	ld	a5,-56(s0)
    80003408:	02078493          	addi	s1,a5,32
    8000340c:	fc843783          	ld	a5,-56(s0)
    80003410:	02078793          	addi	a5,a5,32
    80003414:	00078513          	mv	a0,a5
    80003418:	ec4ff0ef          	jal	ra,80002adc <Xil_In32>
    8000341c:	00050793          	mv	a5,a0
    80003420:	0007879b          	sext.w	a5,a5
    80003424:	0047f793          	andi	a5,a5,4
    80003428:	0007879b          	sext.w	a5,a5
    8000342c:	00078593          	mv	a1,a5
    80003430:	00048513          	mv	a0,s1
    80003434:	ed4ff0ef          	jal	ra,80002b08 <Xil_Out32>
    80003438:	fc843783          	ld	a5,-56(s0)
    8000343c:	02078793          	addi	a5,a5,32
    80003440:	00078513          	mv	a0,a5
    80003444:	e98ff0ef          	jal	ra,80002adc <Xil_In32>
    80003448:	00050793          	mv	a5,a0
    8000344c:	fcf42e23          	sw	a5,-36(s0)
    80003450:	fdc42783          	lw	a5,-36(s0)
    80003454:	0047f793          	andi	a5,a5,4
    80003458:	0007879b          	sext.w	a5,a5
    8000345c:	fc078ee3          	beqz	a5,80003438 <SendData+0x144>
    80003460:	fc843783          	ld	a5,-56(s0)
    80003464:	10078793          	addi	a5,a5,256
    80003468:	02d00593          	li	a1,45
    8000346c:	00078513          	mv	a0,a5
    80003470:	e98ff0ef          	jal	ra,80002b08 <Xil_Out32>
    80003474:	fc843783          	ld	a5,-56(s0)
    80003478:	02078493          	addi	s1,a5,32
    8000347c:	fc843783          	ld	a5,-56(s0)
    80003480:	02078793          	addi	a5,a5,32
    80003484:	00078513          	mv	a0,a5
    80003488:	e54ff0ef          	jal	ra,80002adc <Xil_In32>
    8000348c:	00050793          	mv	a5,a0
    80003490:	0007879b          	sext.w	a5,a5
    80003494:	0047f793          	andi	a5,a5,4
    80003498:	0007879b          	sext.w	a5,a5
    8000349c:	00078593          	mv	a1,a5
    800034a0:	00048513          	mv	a0,s1
    800034a4:	e64ff0ef          	jal	ra,80002b08 <Xil_Out32>
    800034a8:	fbc42783          	lw	a5,-68(s0)
    800034ac:	fff7879b          	addiw	a5,a5,-1
    800034b0:	faf42e23          	sw	a5,-68(s0)
    800034b4:	fbc42783          	lw	a5,-68(s0)
    800034b8:	0007879b          	sext.w	a5,a5
    800034bc:	e60796e3          	bnez	a5,80003328 <SendData+0x34>
    800034c0:	fbb44783          	lbu	a5,-69(s0)
    800034c4:	0ff7f793          	andi	a5,a5,255
    800034c8:	02079863          	bnez	a5,800034f8 <SendData+0x204>
    800034cc:	fc843783          	ld	a5,-56(s0)
    800034d0:	02078793          	addi	a5,a5,32
    800034d4:	00078513          	mv	a0,a5
    800034d8:	e04ff0ef          	jal	ra,80002adc <Xil_In32>
    800034dc:	00050793          	mv	a5,a0
    800034e0:	0007879b          	sext.w	a5,a5
    800034e4:	0107f793          	andi	a5,a5,16
    800034e8:	0007879b          	sext.w	a5,a5
    800034ec:	00079463          	bnez	a5,800034f4 <SendData+0x200>
    800034f0:	fddff06f          	j	800034cc <SendData+0x1d8>
    800034f4:	00000013          	nop
    800034f8:	fbc42783          	lw	a5,-68(s0)
    800034fc:	00078513          	mv	a0,a5
    80003500:	04813083          	ld	ra,72(sp)
    80003504:	04013403          	ld	s0,64(sp)
    80003508:	03813483          	ld	s1,56(sp)
    8000350c:	05010113          	addi	sp,sp,80
    80003510:	00008067          	ret

0000000080003514 <XIic_DynRecv>:
    80003514:	fb010113          	addi	sp,sp,-80
    80003518:	04113423          	sd	ra,72(sp)
    8000351c:	04813023          	sd	s0,64(sp)
    80003520:	02913c23          	sd	s1,56(sp)
    80003524:	05010413          	addi	s0,sp,80
    80003528:	fca43423          	sd	a0,-56(s0)
    8000352c:	00058793          	mv	a5,a1
    80003530:	fac43c23          	sd	a2,-72(s0)
    80003534:	00068713          	mv	a4,a3
    80003538:	fcf403a3          	sb	a5,-57(s0)
    8000353c:	00070793          	mv	a5,a4
    80003540:	fcf40323          	sb	a5,-58(s0)
    80003544:	fc843783          	ld	a5,-56(s0)
    80003548:	02078493          	addi	s1,a5,32
    8000354c:	fc843783          	ld	a5,-56(s0)
    80003550:	02078793          	addi	a5,a5,32
    80003554:	00078513          	mv	a0,a5
    80003558:	d84ff0ef          	jal	ra,80002adc <Xil_In32>
    8000355c:	00050793          	mv	a5,a0
    80003560:	0007879b          	sext.w	a5,a5
    80003564:	0077f793          	andi	a5,a5,7
    80003568:	0007879b          	sext.w	a5,a5
    8000356c:	00078593          	mv	a1,a5
    80003570:	00048513          	mv	a0,s1
    80003574:	d94ff0ef          	jal	ra,80002b08 <Xil_Out32>
    80003578:	fc744783          	lbu	a5,-57(s0)
    8000357c:	0017979b          	slliw	a5,a5,0x1
    80003580:	fcf40da3          	sb	a5,-37(s0)
    80003584:	fdb44783          	lbu	a5,-37(s0)
    80003588:	0017e793          	ori	a5,a5,1
    8000358c:	fcf40da3          	sb	a5,-37(s0)
    80003590:	fc843783          	ld	a5,-56(s0)
    80003594:	10878713          	addi	a4,a5,264
    80003598:	fdb44783          	lbu	a5,-37(s0)
    8000359c:	0007879b          	sext.w	a5,a5
    800035a0:	1007e793          	ori	a5,a5,256
    800035a4:	0007879b          	sext.w	a5,a5
    800035a8:	0007879b          	sext.w	a5,a5
    800035ac:	00078593          	mv	a1,a5
    800035b0:	00070513          	mv	a0,a4
    800035b4:	d54ff0ef          	jal	ra,80002b08 <Xil_Out32>
    800035b8:	fc843783          	ld	a5,-56(s0)
    800035bc:	10478793          	addi	a5,a5,260
    800035c0:	00078513          	mv	a0,a5
    800035c4:	d18ff0ef          	jal	ra,80002adc <Xil_In32>
    800035c8:	00050793          	mv	a5,a0
    800035cc:	fcf42e23          	sw	a5,-36(s0)
    800035d0:	01c0006f          	j	800035ec <XIic_DynRecv+0xd8>
    800035d4:	fc843783          	ld	a5,-56(s0)
    800035d8:	10478793          	addi	a5,a5,260
    800035dc:	00078513          	mv	a0,a5
    800035e0:	cfcff0ef          	jal	ra,80002adc <Xil_In32>
    800035e4:	00050793          	mv	a5,a0
    800035e8:	fcf42e23          	sw	a5,-36(s0)
    800035ec:	fdc42783          	lw	a5,-36(s0)
    800035f0:	0047f793          	andi	a5,a5,4
    800035f4:	0007879b          	sext.w	a5,a5
    800035f8:	fc078ee3          	beqz	a5,800035d4 <XIic_DynRecv+0xc0>
    800035fc:	fc843783          	ld	a5,-56(s0)
    80003600:	02078493          	addi	s1,a5,32
    80003604:	fc843783          	ld	a5,-56(s0)
    80003608:	02078793          	addi	a5,a5,32
    8000360c:	00078513          	mv	a0,a5
    80003610:	cccff0ef          	jal	ra,80002adc <Xil_In32>
    80003614:	00050793          	mv	a5,a0
    80003618:	0007879b          	sext.w	a5,a5
    8000361c:	0107f793          	andi	a5,a5,16
    80003620:	0007879b          	sext.w	a5,a5
    80003624:	00078593          	mv	a1,a5
    80003628:	00048513          	mv	a0,s1
    8000362c:	cdcff0ef          	jal	ra,80002b08 <Xil_Out32>
    80003630:	fc843783          	ld	a5,-56(s0)
    80003634:	10878713          	addi	a4,a5,264
    80003638:	fc644783          	lbu	a5,-58(s0)
    8000363c:	0007879b          	sext.w	a5,a5
    80003640:	2007e793          	ori	a5,a5,512
    80003644:	0007879b          	sext.w	a5,a5
    80003648:	0007879b          	sext.w	a5,a5
    8000364c:	00078593          	mv	a1,a5
    80003650:	00070513          	mv	a0,a4
    80003654:	cb4ff0ef          	jal	ra,80002b08 <Xil_Out32>
    80003658:	fc644783          	lbu	a5,-58(s0)
    8000365c:	00078613          	mv	a2,a5
    80003660:	fb843583          	ld	a1,-72(s0)
    80003664:	fc843503          	ld	a0,-56(s0)
    80003668:	054000ef          	jal	ra,800036bc <DynRecvData>
    8000366c:	00050793          	mv	a5,a0
    80003670:	fcf42a23          	sw	a5,-44(s0)
    80003674:	fc843503          	ld	a0,-56(s0)
    80003678:	638000ef          	jal	ra,80003cb0 <XIic_WaitBusFree>
    8000367c:	00050793          	mv	a5,a0
    80003680:	0007879b          	sext.w	a5,a5
    80003684:	00078663          	beqz	a5,80003690 <XIic_DynRecv+0x17c>
    80003688:	00000793          	li	a5,0
    8000368c:	0180006f          	j	800036a4 <XIic_DynRecv+0x190>
    80003690:	fc644783          	lbu	a5,-58(s0)
    80003694:	0007871b          	sext.w	a4,a5
    80003698:	fd442783          	lw	a5,-44(s0)
    8000369c:	40f707bb          	subw	a5,a4,a5
    800036a0:	0007879b          	sext.w	a5,a5
    800036a4:	00078513          	mv	a0,a5
    800036a8:	04813083          	ld	ra,72(sp)
    800036ac:	04013403          	ld	s0,64(sp)
    800036b0:	03813483          	ld	s1,56(sp)
    800036b4:	05010113          	addi	sp,sp,80
    800036b8:	00008067          	ret

00000000800036bc <DynRecvData>:
    800036bc:	fc010113          	addi	sp,sp,-64
    800036c0:	02113c23          	sd	ra,56(sp)
    800036c4:	02813823          	sd	s0,48(sp)
    800036c8:	04010413          	addi	s0,sp,64
    800036cc:	fca43c23          	sd	a0,-40(s0)
    800036d0:	fcb43823          	sd	a1,-48(s0)
    800036d4:	00060793          	mv	a5,a2
    800036d8:	fcf407a3          	sb	a5,-49(s0)
    800036dc:	0c80006f          	j	800037a4 <DynRecvData+0xe8>
    800036e0:	fcf44783          	lbu	a5,-49(s0)
    800036e4:	0ff7f713          	andi	a4,a5,255
    800036e8:	00100793          	li	a5,1
    800036ec:	00f71863          	bne	a4,a5,800036fc <DynRecvData+0x40>
    800036f0:	01100793          	li	a5,17
    800036f4:	fef42623          	sw	a5,-20(s0)
    800036f8:	00c0006f          	j	80003704 <DynRecvData+0x48>
    800036fc:	01300793          	li	a5,19
    80003700:	fef42623          	sw	a5,-20(s0)
    80003704:	fd843783          	ld	a5,-40(s0)
    80003708:	02078793          	addi	a5,a5,32
    8000370c:	00078513          	mv	a0,a5
    80003710:	bccff0ef          	jal	ra,80002adc <Xil_In32>
    80003714:	00050793          	mv	a5,a0
    80003718:	fef42423          	sw	a5,-24(s0)
    8000371c:	fd843783          	ld	a5,-40(s0)
    80003720:	10478793          	addi	a5,a5,260
    80003724:	00078513          	mv	a0,a5
    80003728:	bb4ff0ef          	jal	ra,80002adc <Xil_In32>
    8000372c:	00050793          	mv	a5,a0
    80003730:	fef42223          	sw	a5,-28(s0)
    80003734:	fe442783          	lw	a5,-28(s0)
    80003738:	0407f793          	andi	a5,a5,64
    8000373c:	0007879b          	sext.w	a5,a5
    80003740:	02078263          	beqz	a5,80003764 <DynRecvData+0xa8>
    80003744:	fe842703          	lw	a4,-24(s0)
    80003748:	fec42783          	lw	a5,-20(s0)
    8000374c:	00f777b3          	and	a5,a4,a5
    80003750:	0007879b          	sext.w	a5,a5
    80003754:	fa0788e3          	beqz	a5,80003704 <DynRecvData+0x48>
    80003758:	fcf44783          	lbu	a5,-49(s0)
    8000375c:	0007879b          	sext.w	a5,a5
    80003760:	0580006f          	j	800037b8 <DynRecvData+0xfc>
    80003764:	00000013          	nop
    80003768:	fd843783          	ld	a5,-40(s0)
    8000376c:	10c78793          	addi	a5,a5,268
    80003770:	00078513          	mv	a0,a5
    80003774:	b68ff0ef          	jal	ra,80002adc <Xil_In32>
    80003778:	00050793          	mv	a5,a0
    8000377c:	0007869b          	sext.w	a3,a5
    80003780:	fd043783          	ld	a5,-48(s0)
    80003784:	00178713          	addi	a4,a5,1
    80003788:	fce43823          	sd	a4,-48(s0)
    8000378c:	00068713          	mv	a4,a3
    80003790:	0ff77713          	andi	a4,a4,255
    80003794:	00e78023          	sb	a4,0(a5)
    80003798:	fcf44783          	lbu	a5,-49(s0)
    8000379c:	fff7879b          	addiw	a5,a5,-1
    800037a0:	fcf407a3          	sb	a5,-49(s0)
    800037a4:	fcf44783          	lbu	a5,-49(s0)
    800037a8:	0ff7f793          	andi	a5,a5,255
    800037ac:	f2079ae3          	bnez	a5,800036e0 <DynRecvData+0x24>
    800037b0:	fcf44783          	lbu	a5,-49(s0)
    800037b4:	0007879b          	sext.w	a5,a5
    800037b8:	00078513          	mv	a0,a5
    800037bc:	03813083          	ld	ra,56(sp)
    800037c0:	03013403          	ld	s0,48(sp)
    800037c4:	04010113          	addi	sp,sp,64
    800037c8:	00008067          	ret

00000000800037cc <XIic_DynSend>:
    800037cc:	fb010113          	addi	sp,sp,-80
    800037d0:	04113423          	sd	ra,72(sp)
    800037d4:	04813023          	sd	s0,64(sp)
    800037d8:	02913c23          	sd	s1,56(sp)
    800037dc:	05010413          	addi	s0,sp,80
    800037e0:	fca43423          	sd	a0,-56(s0)
    800037e4:	00058793          	mv	a5,a1
    800037e8:	fac43c23          	sd	a2,-72(s0)
    800037ec:	fcf41323          	sh	a5,-58(s0)
    800037f0:	00068793          	mv	a5,a3
    800037f4:	fcf402a3          	sb	a5,-59(s0)
    800037f8:	00070793          	mv	a5,a4
    800037fc:	fcf40223          	sb	a5,-60(s0)
    80003800:	fc843503          	ld	a0,-56(s0)
    80003804:	4ac000ef          	jal	ra,80003cb0 <XIic_WaitBusFree>
    80003808:	00050793          	mv	a5,a0
    8000380c:	0007879b          	sext.w	a5,a5
    80003810:	00078663          	beqz	a5,8000381c <XIic_DynSend+0x50>
    80003814:	00000793          	li	a5,0
    80003818:	1880006f          	j	800039a0 <XIic_DynSend+0x1d4>
    8000381c:	fc843783          	ld	a5,-56(s0)
    80003820:	02078493          	addi	s1,a5,32
    80003824:	fc843783          	ld	a5,-56(s0)
    80003828:	02078793          	addi	a5,a5,32
    8000382c:	00078513          	mv	a0,a5
    80003830:	aacff0ef          	jal	ra,80002adc <Xil_In32>
    80003834:	00050793          	mv	a5,a0
    80003838:	0007879b          	sext.w	a5,a5
    8000383c:	0077f793          	andi	a5,a5,7
    80003840:	0007879b          	sext.w	a5,a5
    80003844:	00078593          	mv	a1,a5
    80003848:	00048513          	mv	a0,s1
    8000384c:	abcff0ef          	jal	ra,80002b08 <Xil_Out32>
    80003850:	fc645783          	lhu	a5,-58(s0)
    80003854:	0007879b          	sext.w	a5,a5
    80003858:	2007f793          	andi	a5,a5,512
    8000385c:	0007879b          	sext.w	a5,a5
    80003860:	04079663          	bnez	a5,800038ac <XIic_DynSend+0xe0>
    80003864:	fc645783          	lhu	a5,-58(s0)
    80003868:	0ff7f793          	andi	a5,a5,255
    8000386c:	0017979b          	slliw	a5,a5,0x1
    80003870:	fcf40d23          	sb	a5,-38(s0)
    80003874:	fda44783          	lbu	a5,-38(s0)
    80003878:	ffe7f793          	andi	a5,a5,-2
    8000387c:	fcf40d23          	sb	a5,-38(s0)
    80003880:	fc843783          	ld	a5,-56(s0)
    80003884:	10878713          	addi	a4,a5,264
    80003888:	fda44783          	lbu	a5,-38(s0)
    8000388c:	0007879b          	sext.w	a5,a5
    80003890:	1007e793          	ori	a5,a5,256
    80003894:	0007879b          	sext.w	a5,a5
    80003898:	0007879b          	sext.w	a5,a5
    8000389c:	00078593          	mv	a1,a5
    800038a0:	00070513          	mv	a0,a4
    800038a4:	a64ff0ef          	jal	ra,80002b08 <Xil_Out32>
    800038a8:	0480006f          	j	800038f0 <XIic_DynSend+0x124>
    800038ac:	fc645783          	lhu	a5,-58(s0)
    800038b0:	0ff7f793          	andi	a5,a5,255
    800038b4:	0017979b          	slliw	a5,a5,0x1
    800038b8:	fcf40da3          	sb	a5,-37(s0)
    800038bc:	fdb44783          	lbu	a5,-37(s0)
    800038c0:	ffe7f793          	andi	a5,a5,-2
    800038c4:	fcf40da3          	sb	a5,-37(s0)
    800038c8:	fc843783          	ld	a5,-56(s0)
    800038cc:	10878713          	addi	a4,a5,264
    800038d0:	fdb44783          	lbu	a5,-37(s0)
    800038d4:	0007879b          	sext.w	a5,a5
    800038d8:	3007e793          	ori	a5,a5,768
    800038dc:	0007879b          	sext.w	a5,a5
    800038e0:	0007879b          	sext.w	a5,a5
    800038e4:	00078593          	mv	a1,a5
    800038e8:	00070513          	mv	a0,a4
    800038ec:	a1cff0ef          	jal	ra,80002b08 <Xil_Out32>
    800038f0:	fc843783          	ld	a5,-56(s0)
    800038f4:	10478793          	addi	a5,a5,260
    800038f8:	00078513          	mv	a0,a5
    800038fc:	9e0ff0ef          	jal	ra,80002adc <Xil_In32>
    80003900:	00050793          	mv	a5,a0
    80003904:	fcf42e23          	sw	a5,-36(s0)
    80003908:	01c0006f          	j	80003924 <XIic_DynSend+0x158>
    8000390c:	fc843783          	ld	a5,-56(s0)
    80003910:	10478793          	addi	a5,a5,260
    80003914:	00078513          	mv	a0,a5
    80003918:	9c4ff0ef          	jal	ra,80002adc <Xil_In32>
    8000391c:	00050793          	mv	a5,a0
    80003920:	fcf42e23          	sw	a5,-36(s0)
    80003924:	fdc42783          	lw	a5,-36(s0)
    80003928:	0047f793          	andi	a5,a5,4
    8000392c:	0007879b          	sext.w	a5,a5
    80003930:	fc078ee3          	beqz	a5,8000390c <XIic_DynSend+0x140>
    80003934:	fc843783          	ld	a5,-56(s0)
    80003938:	02078493          	addi	s1,a5,32
    8000393c:	fc843783          	ld	a5,-56(s0)
    80003940:	02078793          	addi	a5,a5,32
    80003944:	00078513          	mv	a0,a5
    80003948:	994ff0ef          	jal	ra,80002adc <Xil_In32>
    8000394c:	00050793          	mv	a5,a0
    80003950:	0007879b          	sext.w	a5,a5
    80003954:	0107f793          	andi	a5,a5,16
    80003958:	0007879b          	sext.w	a5,a5
    8000395c:	00078593          	mv	a1,a5
    80003960:	00048513          	mv	a0,s1
    80003964:	9a4ff0ef          	jal	ra,80002b08 <Xil_Out32>
    80003968:	fc444703          	lbu	a4,-60(s0)
    8000396c:	fc544783          	lbu	a5,-59(s0)
    80003970:	00070693          	mv	a3,a4
    80003974:	00078613          	mv	a2,a5
    80003978:	fb843583          	ld	a1,-72(s0)
    8000397c:	fc843503          	ld	a0,-56(s0)
    80003980:	038000ef          	jal	ra,800039b8 <DynSendData>
    80003984:	00050793          	mv	a5,a0
    80003988:	fcf42a23          	sw	a5,-44(s0)
    8000398c:	fc544783          	lbu	a5,-59(s0)
    80003990:	0007871b          	sext.w	a4,a5
    80003994:	fd442783          	lw	a5,-44(s0)
    80003998:	40f707bb          	subw	a5,a4,a5
    8000399c:	0007879b          	sext.w	a5,a5
    800039a0:	00078513          	mv	a0,a5
    800039a4:	04813083          	ld	ra,72(sp)
    800039a8:	04013403          	ld	s0,64(sp)
    800039ac:	03813483          	ld	s1,56(sp)
    800039b0:	05010113          	addi	sp,sp,80
    800039b4:	00008067          	ret

00000000800039b8 <DynSendData>:
    800039b8:	fc010113          	addi	sp,sp,-64
    800039bc:	02113c23          	sd	ra,56(sp)
    800039c0:	02813823          	sd	s0,48(sp)
    800039c4:	04010413          	addi	s0,sp,64
    800039c8:	fca43c23          	sd	a0,-40(s0)
    800039cc:	fcb43823          	sd	a1,-48(s0)
    800039d0:	00060793          	mv	a5,a2
    800039d4:	00068713          	mv	a4,a3
    800039d8:	fcf407a3          	sb	a5,-49(s0)
    800039dc:	00070793          	mv	a5,a4
    800039e0:	fcf40723          	sb	a5,-50(s0)
    800039e4:	1000006f          	j	80003ae4 <DynSendData+0x12c>
    800039e8:	fd843783          	ld	a5,-40(s0)
    800039ec:	02078793          	addi	a5,a5,32
    800039f0:	00078513          	mv	a0,a5
    800039f4:	8e8ff0ef          	jal	ra,80002adc <Xil_In32>
    800039f8:	00050793          	mv	a5,a0
    800039fc:	fef42623          	sw	a5,-20(s0)
    80003a00:	fec42783          	lw	a5,-20(s0)
    80003a04:	0137f793          	andi	a5,a5,19
    80003a08:	0007879b          	sext.w	a5,a5
    80003a0c:	02078c63          	beqz	a5,80003a44 <DynSendData+0x8c>
    80003a10:	fd843783          	ld	a5,-40(s0)
    80003a14:	10078793          	addi	a5,a5,256
    80003a18:	00300593          	li	a1,3
    80003a1c:	00078513          	mv	a0,a5
    80003a20:	8e8ff0ef          	jal	ra,80002b08 <Xil_Out32>
    80003a24:	fd843783          	ld	a5,-40(s0)
    80003a28:	10078793          	addi	a5,a5,256
    80003a2c:	00100593          	li	a1,1
    80003a30:	00078513          	mv	a0,a5
    80003a34:	8d4ff0ef          	jal	ra,80002b08 <Xil_Out32>
    80003a38:	fcf44783          	lbu	a5,-49(s0)
    80003a3c:	0007879b          	sext.w	a5,a5
    80003a40:	0f00006f          	j	80003b30 <DynSendData+0x178>
    80003a44:	fec42783          	lw	a5,-20(s0)
    80003a48:	0047f793          	andi	a5,a5,4
    80003a4c:	0007879b          	sext.w	a5,a5
    80003a50:	00079463          	bnez	a5,80003a58 <DynSendData+0xa0>
    80003a54:	f95ff06f          	j	800039e8 <DynSendData+0x30>
    80003a58:	00000013          	nop
    80003a5c:	fcf44783          	lbu	a5,-49(s0)
    80003a60:	0ff7f713          	andi	a4,a5,255
    80003a64:	00100793          	li	a5,1
    80003a68:	04f71463          	bne	a4,a5,80003ab0 <DynSendData+0xf8>
    80003a6c:	fce44783          	lbu	a5,-50(s0)
    80003a70:	0ff7f793          	andi	a5,a5,255
    80003a74:	02079e63          	bnez	a5,80003ab0 <DynSendData+0xf8>
    80003a78:	fd843783          	ld	a5,-40(s0)
    80003a7c:	10878693          	addi	a3,a5,264
    80003a80:	fd043783          	ld	a5,-48(s0)
    80003a84:	00178713          	addi	a4,a5,1
    80003a88:	fce43823          	sd	a4,-48(s0)
    80003a8c:	0007c783          	lbu	a5,0(a5)
    80003a90:	0007879b          	sext.w	a5,a5
    80003a94:	2007e793          	ori	a5,a5,512
    80003a98:	0007879b          	sext.w	a5,a5
    80003a9c:	0007879b          	sext.w	a5,a5
    80003aa0:	00078593          	mv	a1,a5
    80003aa4:	00068513          	mv	a0,a3
    80003aa8:	860ff0ef          	jal	ra,80002b08 <Xil_Out32>
    80003aac:	02c0006f          	j	80003ad8 <DynSendData+0x120>
    80003ab0:	fd843783          	ld	a5,-40(s0)
    80003ab4:	10878693          	addi	a3,a5,264
    80003ab8:	fd043783          	ld	a5,-48(s0)
    80003abc:	00178713          	addi	a4,a5,1
    80003ac0:	fce43823          	sd	a4,-48(s0)
    80003ac4:	0007c783          	lbu	a5,0(a5)
    80003ac8:	0007879b          	sext.w	a5,a5
    80003acc:	00078593          	mv	a1,a5
    80003ad0:	00068513          	mv	a0,a3
    80003ad4:	834ff0ef          	jal	ra,80002b08 <Xil_Out32>
    80003ad8:	fcf44783          	lbu	a5,-49(s0)
    80003adc:	fff7879b          	addiw	a5,a5,-1
    80003ae0:	fcf407a3          	sb	a5,-49(s0)
    80003ae4:	fcf44783          	lbu	a5,-49(s0)
    80003ae8:	0ff7f793          	andi	a5,a5,255
    80003aec:	ee079ee3          	bnez	a5,800039e8 <DynSendData+0x30>
    80003af0:	fce44783          	lbu	a5,-50(s0)
    80003af4:	0ff7f793          	andi	a5,a5,255
    80003af8:	02079863          	bnez	a5,80003b28 <DynSendData+0x170>
    80003afc:	fd843783          	ld	a5,-40(s0)
    80003b00:	02078793          	addi	a5,a5,32
    80003b04:	00078513          	mv	a0,a5
    80003b08:	fd5fe0ef          	jal	ra,80002adc <Xil_In32>
    80003b0c:	00050793          	mv	a5,a0
    80003b10:	0007879b          	sext.w	a5,a5
    80003b14:	0107f793          	andi	a5,a5,16
    80003b18:	0007879b          	sext.w	a5,a5
    80003b1c:	00079463          	bnez	a5,80003b24 <DynSendData+0x16c>
    80003b20:	fddff06f          	j	80003afc <DynSendData+0x144>
    80003b24:	00000013          	nop
    80003b28:	fcf44783          	lbu	a5,-49(s0)
    80003b2c:	0007879b          	sext.w	a5,a5
    80003b30:	00078513          	mv	a0,a5
    80003b34:	03813083          	ld	ra,56(sp)
    80003b38:	03013403          	ld	s0,48(sp)
    80003b3c:	04010113          	addi	sp,sp,64
    80003b40:	00008067          	ret

0000000080003b44 <XIic_DynInit>:
    80003b44:	fd010113          	addi	sp,sp,-48
    80003b48:	02113423          	sd	ra,40(sp)
    80003b4c:	02813023          	sd	s0,32(sp)
    80003b50:	03010413          	addi	s0,sp,48
    80003b54:	fca43c23          	sd	a0,-40(s0)
    80003b58:	fd843783          	ld	a5,-40(s0)
    80003b5c:	04078793          	addi	a5,a5,64
    80003b60:	00a00593          	li	a1,10
    80003b64:	00078513          	mv	a0,a5
    80003b68:	fa1fe0ef          	jal	ra,80002b08 <Xil_Out32>
    80003b6c:	fd843783          	ld	a5,-40(s0)
    80003b70:	12078793          	addi	a5,a5,288
    80003b74:	00f00593          	li	a1,15
    80003b78:	00078513          	mv	a0,a5
    80003b7c:	f8dfe0ef          	jal	ra,80002b08 <Xil_Out32>
    80003b80:	fd843783          	ld	a5,-40(s0)
    80003b84:	10078793          	addi	a5,a5,256
    80003b88:	00200593          	li	a1,2
    80003b8c:	00078513          	mv	a0,a5
    80003b90:	f79fe0ef          	jal	ra,80002b08 <Xil_Out32>
    80003b94:	fd843783          	ld	a5,-40(s0)
    80003b98:	10078793          	addi	a5,a5,256
    80003b9c:	00100593          	li	a1,1
    80003ba0:	00078513          	mv	a0,a5
    80003ba4:	f65fe0ef          	jal	ra,80002b08 <Xil_Out32>
    80003ba8:	fd843783          	ld	a5,-40(s0)
    80003bac:	10478793          	addi	a5,a5,260
    80003bb0:	00078513          	mv	a0,a5
    80003bb4:	f29fe0ef          	jal	ra,80002adc <Xil_In32>
    80003bb8:	00050793          	mv	a5,a0
    80003bbc:	fef42623          	sw	a5,-20(s0)
    80003bc0:	fec42783          	lw	a5,-20(s0)
    80003bc4:	0007871b          	sext.w	a4,a5
    80003bc8:	0c000793          	li	a5,192
    80003bcc:	00f71663          	bne	a4,a5,80003bd8 <XIic_DynInit+0x94>
    80003bd0:	00000793          	li	a5,0
    80003bd4:	0080006f          	j	80003bdc <XIic_DynInit+0x98>
    80003bd8:	00100793          	li	a5,1
    80003bdc:	00078513          	mv	a0,a5
    80003be0:	02813083          	ld	ra,40(sp)
    80003be4:	02013403          	ld	s0,32(sp)
    80003be8:	03010113          	addi	sp,sp,48
    80003bec:	00008067          	ret

0000000080003bf0 <XIic_CheckIsBusBusy>:
    80003bf0:	fd010113          	addi	sp,sp,-48
    80003bf4:	02113423          	sd	ra,40(sp)
    80003bf8:	02813023          	sd	s0,32(sp)
    80003bfc:	03010413          	addi	s0,sp,48
    80003c00:	fca43c23          	sd	a0,-40(s0)
    80003c04:	fd843783          	ld	a5,-40(s0)
    80003c08:	10478793          	addi	a5,a5,260
    80003c0c:	00078513          	mv	a0,a5
    80003c10:	ecdfe0ef          	jal	ra,80002adc <Xil_In32>
    80003c14:	00050793          	mv	a5,a0
    80003c18:	fef42623          	sw	a5,-20(s0)
    80003c1c:	fec42783          	lw	a5,-20(s0)
    80003c20:	0047f793          	andi	a5,a5,4
    80003c24:	0007879b          	sext.w	a5,a5
    80003c28:	00078663          	beqz	a5,80003c34 <XIic_CheckIsBusBusy+0x44>
    80003c2c:	00100793          	li	a5,1
    80003c30:	0080006f          	j	80003c38 <XIic_CheckIsBusBusy+0x48>
    80003c34:	00000793          	li	a5,0
    80003c38:	00078513          	mv	a0,a5
    80003c3c:	02813083          	ld	ra,40(sp)
    80003c40:	02013403          	ld	s0,32(sp)
    80003c44:	03010113          	addi	sp,sp,48
    80003c48:	00008067          	ret

0000000080003c4c <usleep>:
    80003c4c:	fd010113          	addi	sp,sp,-48
    80003c50:	02813423          	sd	s0,40(sp)
    80003c54:	03010413          	addi	s0,sp,48
    80003c58:	00050793          	mv	a5,a0
    80003c5c:	fcf42e23          	sw	a5,-36(s0)
    80003c60:	b00027f3          	csrr	a5,mcycle
    80003c64:	fef43423          	sd	a5,-24(s0)
    80003c68:	b00027f3          	csrr	a5,mcycle
    80003c6c:	fef43023          	sd	a5,-32(s0)
    80003c70:	fe043703          	ld	a4,-32(s0)
    80003c74:	fe843783          	ld	a5,-24(s0)
    80003c78:	40f70733          	sub	a4,a4,a5
    80003c7c:	fdc42683          	lw	a3,-36(s0)
    80003c80:	06400793          	li	a5,100
    80003c84:	02f687bb          	mulw	a5,a3,a5
    80003c88:	0007879b          	sext.w	a5,a5
    80003c8c:	02079793          	slli	a5,a5,0x20
    80003c90:	0207d793          	srli	a5,a5,0x20
    80003c94:	00f77463          	bgeu	a4,a5,80003c9c <usleep+0x50>
    80003c98:	fd1ff06f          	j	80003c68 <usleep+0x1c>
    80003c9c:	00000013          	nop
    80003ca0:	00000013          	nop
    80003ca4:	02813403          	ld	s0,40(sp)
    80003ca8:	03010113          	addi	sp,sp,48
    80003cac:	00008067          	ret

0000000080003cb0 <XIic_WaitBusFree>:
    80003cb0:	fd010113          	addi	sp,sp,-48
    80003cb4:	02113423          	sd	ra,40(sp)
    80003cb8:	02813023          	sd	s0,32(sp)
    80003cbc:	03010413          	addi	s0,sp,48
    80003cc0:	fca43c23          	sd	a0,-40(s0)
    80003cc4:	fe042623          	sw	zero,-20(s0)
    80003cc8:	0300006f          	j	80003cf8 <XIic_WaitBusFree+0x48>
    80003ccc:	fec42783          	lw	a5,-20(s0)
    80003cd0:	0017871b          	addiw	a4,a5,1
    80003cd4:	fee42623          	sw	a4,-20(s0)
    80003cd8:	00078713          	mv	a4,a5
    80003cdc:	000027b7          	lui	a5,0x2
    80003ce0:	71078793          	addi	a5,a5,1808 # 2710 <_start-0x7fffd8f8>
    80003ce4:	00e7f663          	bgeu	a5,a4,80003cf0 <XIic_WaitBusFree+0x40>
    80003ce8:	00100793          	li	a5,1
    80003cec:	0240006f          	j	80003d10 <XIic_WaitBusFree+0x60>
    80003cf0:	06400513          	li	a0,100
    80003cf4:	f59ff0ef          	jal	ra,80003c4c <usleep>
    80003cf8:	fd843503          	ld	a0,-40(s0)
    80003cfc:	ef5ff0ef          	jal	ra,80003bf0 <XIic_CheckIsBusBusy>
    80003d00:	00050793          	mv	a5,a0
    80003d04:	0007879b          	sext.w	a5,a5
    80003d08:	fc0792e3          	bnez	a5,80003ccc <XIic_WaitBusFree+0x1c>
    80003d0c:	00000793          	li	a5,0
    80003d10:	00078513          	mv	a0,a5
    80003d14:	02813083          	ld	ra,40(sp)
    80003d18:	02013403          	ld	s0,32(sp)
    80003d1c:	03010113          	addi	sp,sp,48
    80003d20:	00008067          	ret

0000000080003d24 <Xil_In32>:
    80003d24:	fe010113          	addi	sp,sp,-32
    80003d28:	00813c23          	sd	s0,24(sp)
    80003d2c:	02010413          	addi	s0,sp,32
    80003d30:	fea43423          	sd	a0,-24(s0)
    80003d34:	fe843783          	ld	a5,-24(s0)
    80003d38:	0007a783          	lw	a5,0(a5)
    80003d3c:	0007879b          	sext.w	a5,a5
    80003d40:	00078513          	mv	a0,a5
    80003d44:	01813403          	ld	s0,24(sp)
    80003d48:	02010113          	addi	sp,sp,32
    80003d4c:	00008067          	ret

0000000080003d50 <Xil_Out32>:
    80003d50:	fd010113          	addi	sp,sp,-48
    80003d54:	02813423          	sd	s0,40(sp)
    80003d58:	03010413          	addi	s0,sp,48
    80003d5c:	fca43c23          	sd	a0,-40(s0)
    80003d60:	00058793          	mv	a5,a1
    80003d64:	fcf42a23          	sw	a5,-44(s0)
    80003d68:	fd843783          	ld	a5,-40(s0)
    80003d6c:	fef43423          	sd	a5,-24(s0)
    80003d70:	fe843783          	ld	a5,-24(s0)
    80003d74:	fd442703          	lw	a4,-44(s0)
    80003d78:	00e7a023          	sw	a4,0(a5)
    80003d7c:	00000013          	nop
    80003d80:	02813403          	ld	s0,40(sp)
    80003d84:	03010113          	addi	sp,sp,48
    80003d88:	00008067          	ret

0000000080003d8c <main>:
    80003d8c:	fe010113          	addi	sp,sp,-32
    80003d90:	00113c23          	sd	ra,24(sp)
    80003d94:	00813823          	sd	s0,16(sp)
    80003d98:	02010413          	addi	s0,sp,32
    80003d9c:	00003517          	auipc	a0,0x3
    80003da0:	35450513          	addi	a0,a0,852 # 800070f0 <Xil_AssertSetCallback+0xbc>
    80003da4:	b30fc0ef          	jal	ra,800000d4 <kprintf>
    80003da8:	050000ef          	jal	ra,80003df8 <IicLowLevelEeprom>
    80003dac:	00050793          	mv	a5,a0
    80003db0:	fef42623          	sw	a5,-20(s0)
    80003db4:	fec42783          	lw	a5,-20(s0)
    80003db8:	0007879b          	sext.w	a5,a5
    80003dbc:	00078c63          	beqz	a5,80003dd4 <main+0x48>
    80003dc0:	00003517          	auipc	a0,0x3
    80003dc4:	35850513          	addi	a0,a0,856 # 80007118 <Xil_AssertSetCallback+0xe4>
    80003dc8:	b0cfc0ef          	jal	ra,800000d4 <kprintf>
    80003dcc:	00100793          	li	a5,1
    80003dd0:	0140006f          	j	80003de4 <main+0x58>
    80003dd4:	00003517          	auipc	a0,0x3
    80003dd8:	36c50513          	addi	a0,a0,876 # 80007140 <Xil_AssertSetCallback+0x10c>
    80003ddc:	af8fc0ef          	jal	ra,800000d4 <kprintf>
    80003de0:	00000793          	li	a5,0
    80003de4:	00078513          	mv	a0,a5
    80003de8:	01813083          	ld	ra,24(sp)
    80003dec:	01013403          	ld	s0,16(sp)
    80003df0:	02010113          	addi	sp,sp,32
    80003df4:	00008067          	ret

0000000080003df8 <IicLowLevelEeprom>:
    80003df8:	fe010113          	addi	sp,sp,-32
    80003dfc:	00113c23          	sd	ra,24(sp)
    80003e00:	00813823          	sd	s0,16(sp)
    80003e04:	02010413          	addi	s0,sp,32
    80003e08:	00003797          	auipc	a5,0x3
    80003e0c:	43078793          	addi	a5,a5,1072 # 80007238 <EepromIicAddr>
    80003e10:	05400713          	li	a4,84
    80003e14:	00e78023          	sb	a4,0(a5)
    80003e18:	08000513          	li	a0,128
    80003e1c:	170000ef          	jal	ra,80003f8c <ReadWriteVerify>
    80003e20:	00050793          	mv	a5,a0
    80003e24:	fef42623          	sw	a5,-20(s0)
    80003e28:	fec42783          	lw	a5,-20(s0)
    80003e2c:	0007879b          	sext.w	a5,a5
    80003e30:	02078263          	beqz	a5,80003e54 <IicLowLevelEeprom+0x5c>
    80003e34:	00003797          	auipc	a5,0x3
    80003e38:	40078793          	addi	a5,a5,1024 # 80007234 <ErrorCount>
    80003e3c:	0007a783          	lw	a5,0(a5)
    80003e40:	0017879b          	addiw	a5,a5,1
    80003e44:	0007871b          	sext.w	a4,a5
    80003e48:	00003797          	auipc	a5,0x3
    80003e4c:	3ec78793          	addi	a5,a5,1004 # 80007234 <ErrorCount>
    80003e50:	00e7a023          	sw	a4,0(a5)
    80003e54:	09000513          	li	a0,144
    80003e58:	134000ef          	jal	ra,80003f8c <ReadWriteVerify>
    80003e5c:	00050793          	mv	a5,a0
    80003e60:	fef42623          	sw	a5,-20(s0)
    80003e64:	fec42783          	lw	a5,-20(s0)
    80003e68:	0007879b          	sext.w	a5,a5
    80003e6c:	02078263          	beqz	a5,80003e90 <IicLowLevelEeprom+0x98>
    80003e70:	00003797          	auipc	a5,0x3
    80003e74:	3c478793          	addi	a5,a5,964 # 80007234 <ErrorCount>
    80003e78:	0007a783          	lw	a5,0(a5)
    80003e7c:	0017879b          	addiw	a5,a5,1
    80003e80:	0007871b          	sext.w	a4,a5
    80003e84:	00003797          	auipc	a5,0x3
    80003e88:	3b078793          	addi	a5,a5,944 # 80007234 <ErrorCount>
    80003e8c:	00e7a023          	sw	a4,0(a5)
    80003e90:	0b000513          	li	a0,176
    80003e94:	0f8000ef          	jal	ra,80003f8c <ReadWriteVerify>
    80003e98:	00050793          	mv	a5,a0
    80003e9c:	fef42623          	sw	a5,-20(s0)
    80003ea0:	fec42783          	lw	a5,-20(s0)
    80003ea4:	0007879b          	sext.w	a5,a5
    80003ea8:	02078263          	beqz	a5,80003ecc <IicLowLevelEeprom+0xd4>
    80003eac:	00003797          	auipc	a5,0x3
    80003eb0:	38878793          	addi	a5,a5,904 # 80007234 <ErrorCount>
    80003eb4:	0007a783          	lw	a5,0(a5)
    80003eb8:	0017879b          	addiw	a5,a5,1
    80003ebc:	0007871b          	sext.w	a4,a5
    80003ec0:	00003797          	auipc	a5,0x3
    80003ec4:	37478793          	addi	a5,a5,884 # 80007234 <ErrorCount>
    80003ec8:	00e7a023          	sw	a4,0(a5)
    80003ecc:	0a000513          	li	a0,160
    80003ed0:	0bc000ef          	jal	ra,80003f8c <ReadWriteVerify>
    80003ed4:	00050793          	mv	a5,a0
    80003ed8:	fef42623          	sw	a5,-20(s0)
    80003edc:	fec42783          	lw	a5,-20(s0)
    80003ee0:	0007879b          	sext.w	a5,a5
    80003ee4:	02078263          	beqz	a5,80003f08 <IicLowLevelEeprom+0x110>
    80003ee8:	00003797          	auipc	a5,0x3
    80003eec:	34c78793          	addi	a5,a5,844 # 80007234 <ErrorCount>
    80003ef0:	0007a783          	lw	a5,0(a5)
    80003ef4:	0017879b          	addiw	a5,a5,1
    80003ef8:	0007871b          	sext.w	a4,a5
    80003efc:	00003797          	auipc	a5,0x3
    80003f00:	33878793          	addi	a5,a5,824 # 80007234 <ErrorCount>
    80003f04:	00e7a023          	sw	a4,0(a5)
    80003f08:	04000613          	li	a2,64
    80003f0c:	00003597          	auipc	a1,0x3
    80003f10:	35c58593          	addi	a1,a1,860 # 80007268 <ReadBufferAll>
    80003f14:	08000513          	li	a0,128
    80003f18:	4a0000ef          	jal	ra,800043b8 <EepromReadByte>
    80003f1c:	00050793          	mv	a5,a0
    80003f20:	fef42423          	sw	a5,-24(s0)
    80003f24:	fe842783          	lw	a5,-24(s0)
    80003f28:	0007871b          	sext.w	a4,a5
    80003f2c:	04000793          	li	a5,64
    80003f30:	02f70263          	beq	a4,a5,80003f54 <IicLowLevelEeprom+0x15c>
    80003f34:	00003797          	auipc	a5,0x3
    80003f38:	30078793          	addi	a5,a5,768 # 80007234 <ErrorCount>
    80003f3c:	0007a783          	lw	a5,0(a5)
    80003f40:	0017879b          	addiw	a5,a5,1
    80003f44:	0007871b          	sext.w	a4,a5
    80003f48:	00003797          	auipc	a5,0x3
    80003f4c:	2ec78793          	addi	a5,a5,748 # 80007234 <ErrorCount>
    80003f50:	00e7a023          	sw	a4,0(a5)
    80003f54:	00003797          	auipc	a5,0x3
    80003f58:	2e078793          	addi	a5,a5,736 # 80007234 <ErrorCount>
    80003f5c:	0007a783          	lw	a5,0(a5)
    80003f60:	00078863          	beqz	a5,80003f70 <IicLowLevelEeprom+0x178>
    80003f64:	00100793          	li	a5,1
    80003f68:	fef42623          	sw	a5,-20(s0)
    80003f6c:	0080006f          	j	80003f74 <IicLowLevelEeprom+0x17c>
    80003f70:	fe042623          	sw	zero,-20(s0)
    80003f74:	fec42783          	lw	a5,-20(s0)
    80003f78:	00078513          	mv	a0,a5
    80003f7c:	01813083          	ld	ra,24(sp)
    80003f80:	01013403          	ld	s0,16(sp)
    80003f84:	02010113          	addi	sp,sp,32
    80003f88:	00008067          	ret

0000000080003f8c <ReadWriteVerify>:
    80003f8c:	fd010113          	addi	sp,sp,-48
    80003f90:	02113423          	sd	ra,40(sp)
    80003f94:	02813023          	sd	s0,32(sp)
    80003f98:	03010413          	addi	s0,sp,48
    80003f9c:	00050793          	mv	a5,a0
    80003fa0:	fcf40fa3          	sb	a5,-33(s0)
    80003fa4:	fe042623          	sw	zero,-20(s0)
    80003fa8:	0400006f          	j	80003fe8 <ReadWriteVerify+0x5c>
    80003fac:	fec42783          	lw	a5,-20(s0)
    80003fb0:	0ff7f713          	andi	a4,a5,255
    80003fb4:	00003697          	auipc	a3,0x3
    80003fb8:	29468693          	addi	a3,a3,660 # 80007248 <WriteBuffer>
    80003fbc:	fec42783          	lw	a5,-20(s0)
    80003fc0:	00f687b3          	add	a5,a3,a5
    80003fc4:	00e78023          	sb	a4,0(a5)
    80003fc8:	00003717          	auipc	a4,0x3
    80003fcc:	29070713          	addi	a4,a4,656 # 80007258 <ReadBuffer>
    80003fd0:	fec42783          	lw	a5,-20(s0)
    80003fd4:	00f707b3          	add	a5,a4,a5
    80003fd8:	00078023          	sb	zero,0(a5)
    80003fdc:	fec42783          	lw	a5,-20(s0)
    80003fe0:	0017879b          	addiw	a5,a5,1
    80003fe4:	fef42623          	sw	a5,-20(s0)
    80003fe8:	fec42783          	lw	a5,-20(s0)
    80003fec:	0007871b          	sext.w	a4,a5
    80003ff0:	00f00793          	li	a5,15
    80003ff4:	fae7dce3          	bge	a5,a4,80003fac <ReadWriteVerify+0x20>
    80003ff8:	fdf44783          	lbu	a5,-33(s0)
    80003ffc:	01000613          	li	a2,16
    80004000:	00003597          	auipc	a1,0x3
    80004004:	24858593          	addi	a1,a1,584 # 80007248 <WriteBuffer>
    80004008:	00078513          	mv	a0,a5
    8000400c:	194000ef          	jal	ra,800041a0 <EepromWriteByte>
    80004010:	00050793          	mv	a5,a0
    80004014:	fef42423          	sw	a5,-24(s0)
    80004018:	fe842783          	lw	a5,-24(s0)
    8000401c:	0007871b          	sext.w	a4,a5
    80004020:	01000793          	li	a5,16
    80004024:	00f70663          	beq	a4,a5,80004030 <ReadWriteVerify+0xa4>
    80004028:	00100793          	li	a5,1
    8000402c:	1600006f          	j	8000418c <ReadWriteVerify+0x200>
    80004030:	fdf44783          	lbu	a5,-33(s0)
    80004034:	01000613          	li	a2,16
    80004038:	00003597          	auipc	a1,0x3
    8000403c:	22058593          	addi	a1,a1,544 # 80007258 <ReadBuffer>
    80004040:	00078513          	mv	a0,a5
    80004044:	374000ef          	jal	ra,800043b8 <EepromReadByte>
    80004048:	00050793          	mv	a5,a0
    8000404c:	fef42223          	sw	a5,-28(s0)
    80004050:	fe442783          	lw	a5,-28(s0)
    80004054:	0007871b          	sext.w	a4,a5
    80004058:	01000793          	li	a5,16
    8000405c:	00f70663          	beq	a4,a5,80004068 <ReadWriteVerify+0xdc>
    80004060:	00100793          	li	a5,1
    80004064:	1280006f          	j	8000418c <ReadWriteVerify+0x200>
    80004068:	fe042623          	sw	zero,-20(s0)
    8000406c:	05c0006f          	j	800040c8 <ReadWriteVerify+0x13c>
    80004070:	00003717          	auipc	a4,0x3
    80004074:	1e870713          	addi	a4,a4,488 # 80007258 <ReadBuffer>
    80004078:	fec42783          	lw	a5,-20(s0)
    8000407c:	00f707b3          	add	a5,a4,a5
    80004080:	0007c683          	lbu	a3,0(a5)
    80004084:	00003717          	auipc	a4,0x3
    80004088:	1c470713          	addi	a4,a4,452 # 80007248 <WriteBuffer>
    8000408c:	fec42783          	lw	a5,-20(s0)
    80004090:	00f707b3          	add	a5,a4,a5
    80004094:	0007c783          	lbu	a5,0(a5)
    80004098:	00068713          	mv	a4,a3
    8000409c:	00f70663          	beq	a4,a5,800040a8 <ReadWriteVerify+0x11c>
    800040a0:	00100793          	li	a5,1
    800040a4:	0e80006f          	j	8000418c <ReadWriteVerify+0x200>
    800040a8:	00003717          	auipc	a4,0x3
    800040ac:	1b070713          	addi	a4,a4,432 # 80007258 <ReadBuffer>
    800040b0:	fec42783          	lw	a5,-20(s0)
    800040b4:	00f707b3          	add	a5,a4,a5
    800040b8:	00078023          	sb	zero,0(a5)
    800040bc:	fec42783          	lw	a5,-20(s0)
    800040c0:	0017879b          	addiw	a5,a5,1
    800040c4:	fef42623          	sw	a5,-20(s0)
    800040c8:	fec42783          	lw	a5,-20(s0)
    800040cc:	0007871b          	sext.w	a4,a5
    800040d0:	00f00793          	li	a5,15
    800040d4:	f8e7dee3          	bge	a5,a4,80004070 <ReadWriteVerify+0xe4>
    800040d8:	fe042623          	sw	zero,-20(s0)
    800040dc:	09c0006f          	j	80004178 <ReadWriteVerify+0x1ec>
    800040e0:	fec42783          	lw	a5,-20(s0)
    800040e4:	0ff7f793          	andi	a5,a5,255
    800040e8:	fdf44703          	lbu	a4,-33(s0)
    800040ec:	00f707bb          	addw	a5,a4,a5
    800040f0:	0ff7f693          	andi	a3,a5,255
    800040f4:	fec42703          	lw	a4,-20(s0)
    800040f8:	00003797          	auipc	a5,0x3
    800040fc:	16078793          	addi	a5,a5,352 # 80007258 <ReadBuffer>
    80004100:	00f707b3          	add	a5,a4,a5
    80004104:	00100613          	li	a2,1
    80004108:	00078593          	mv	a1,a5
    8000410c:	00068513          	mv	a0,a3
    80004110:	2a8000ef          	jal	ra,800043b8 <EepromReadByte>
    80004114:	00050793          	mv	a5,a0
    80004118:	fef42223          	sw	a5,-28(s0)
    8000411c:	fe442783          	lw	a5,-28(s0)
    80004120:	0007871b          	sext.w	a4,a5
    80004124:	00100793          	li	a5,1
    80004128:	00f70663          	beq	a4,a5,80004134 <ReadWriteVerify+0x1a8>
    8000412c:	00100793          	li	a5,1
    80004130:	05c0006f          	j	8000418c <ReadWriteVerify+0x200>
    80004134:	00003717          	auipc	a4,0x3
    80004138:	12470713          	addi	a4,a4,292 # 80007258 <ReadBuffer>
    8000413c:	fec42783          	lw	a5,-20(s0)
    80004140:	00f707b3          	add	a5,a4,a5
    80004144:	0007c683          	lbu	a3,0(a5)
    80004148:	00003717          	auipc	a4,0x3
    8000414c:	10070713          	addi	a4,a4,256 # 80007248 <WriteBuffer>
    80004150:	fec42783          	lw	a5,-20(s0)
    80004154:	00f707b3          	add	a5,a4,a5
    80004158:	0007c783          	lbu	a5,0(a5)
    8000415c:	00068713          	mv	a4,a3
    80004160:	00f70663          	beq	a4,a5,8000416c <ReadWriteVerify+0x1e0>
    80004164:	00100793          	li	a5,1
    80004168:	0240006f          	j	8000418c <ReadWriteVerify+0x200>
    8000416c:	fec42783          	lw	a5,-20(s0)
    80004170:	0017879b          	addiw	a5,a5,1
    80004174:	fef42623          	sw	a5,-20(s0)
    80004178:	fec42783          	lw	a5,-20(s0)
    8000417c:	0007871b          	sext.w	a4,a5
    80004180:	00f00793          	li	a5,15
    80004184:	f4e7dee3          	bge	a5,a4,800040e0 <ReadWriteVerify+0x154>
    80004188:	00000793          	li	a5,0
    8000418c:	00078513          	mv	a0,a5
    80004190:	02813083          	ld	ra,40(sp)
    80004194:	02013403          	ld	s0,32(sp)
    80004198:	03010113          	addi	sp,sp,48
    8000419c:	00008067          	ret

00000000800041a0 <EepromWriteByte>:
    800041a0:	fb010113          	addi	sp,sp,-80
    800041a4:	04113423          	sd	ra,72(sp)
    800041a8:	04813023          	sd	s0,64(sp)
    800041ac:	05010413          	addi	s0,sp,80
    800041b0:	00050793          	mv	a5,a0
    800041b4:	fab43823          	sd	a1,-80(s0)
    800041b8:	00060713          	mv	a4,a2
    800041bc:	faf40fa3          	sb	a5,-65(s0)
    800041c0:	00070793          	mv	a5,a4
    800041c4:	faf41e23          	sh	a5,-68(s0)
    800041c8:	fbf44783          	lbu	a5,-65(s0)
    800041cc:	fcf40423          	sb	a5,-56(s0)
    800041d0:	00003797          	auipc	a5,0x3
    800041d4:	06878793          	addi	a5,a5,104 # 80007238 <EepromIicAddr>
    800041d8:	0007c703          	lbu	a4,0(a5)
    800041dc:	00003797          	auipc	a5,0x3
    800041e0:	05c78793          	addi	a5,a5,92 # 80007238 <EepromIicAddr>
    800041e4:	00e78023          	sb	a4,0(a5)
    800041e8:	fe042623          	sw	zero,-20(s0)
    800041ec:	0340006f          	j	80004220 <EepromWriteByte+0x80>
    800041f0:	fec42783          	lw	a5,-20(s0)
    800041f4:	fb043703          	ld	a4,-80(s0)
    800041f8:	00f70733          	add	a4,a4,a5
    800041fc:	fec42783          	lw	a5,-20(s0)
    80004200:	00178793          	addi	a5,a5,1
    80004204:	00074703          	lbu	a4,0(a4)
    80004208:	ff040693          	addi	a3,s0,-16
    8000420c:	00f687b3          	add	a5,a3,a5
    80004210:	fce78c23          	sb	a4,-40(a5)
    80004214:	fec42783          	lw	a5,-20(s0)
    80004218:	0017879b          	addiw	a5,a5,1
    8000421c:	fef42623          	sw	a5,-20(s0)
    80004220:	fbc45783          	lhu	a5,-68(s0)
    80004224:	0007871b          	sext.w	a4,a5
    80004228:	fec42783          	lw	a5,-20(s0)
    8000422c:	0007879b          	sext.w	a5,a5
    80004230:	fce7c0e3          	blt	a5,a4,800041f0 <EepromWriteByte+0x50>
    80004234:	00003797          	auipc	a5,0x3
    80004238:	00478793          	addi	a5,a5,4 # 80007238 <EepromIicAddr>
    8000423c:	0007c783          	lbu	a5,0(a5)
    80004240:	fbf40613          	addi	a2,s0,-65
    80004244:	00000713          	li	a4,0
    80004248:	00100693          	li	a3,1
    8000424c:	00078593          	mv	a1,a5
    80004250:	60050537          	lui	a0,0x60050
    80004254:	dc1fe0ef          	jal	ra,80003014 <XIic_Send>
    80004258:	00050793          	mv	a5,a0
    8000425c:	0007879b          	sext.w	a5,a5
    80004260:	fef42223          	sw	a5,-28(s0)
    80004264:	fe442783          	lw	a5,-28(s0)
    80004268:	0007879b          	sext.w	a5,a5
    8000426c:	00078713          	mv	a4,a5
    80004270:	00100793          	li	a5,1
    80004274:	04f70263          	beq	a4,a5,800042b8 <EepromWriteByte+0x118>
    80004278:	600507b7          	lui	a5,0x60050
    8000427c:	10078513          	addi	a0,a5,256 # 60050100 <_start-0x1ffaff08>
    80004280:	aa5ff0ef          	jal	ra,80003d24 <Xil_In32>
    80004284:	00050793          	mv	a5,a0
    80004288:	fef42423          	sw	a5,-24(s0)
    8000428c:	fe842783          	lw	a5,-24(s0)
    80004290:	0027e793          	ori	a5,a5,2
    80004294:	0007879b          	sext.w	a5,a5
    80004298:	00078593          	mv	a1,a5
    8000429c:	600507b7          	lui	a5,0x60050
    800042a0:	10078513          	addi	a0,a5,256 # 60050100 <_start-0x1ffaff08>
    800042a4:	aadff0ef          	jal	ra,80003d50 <Xil_Out32>
    800042a8:	00100593          	li	a1,1
    800042ac:	600507b7          	lui	a5,0x60050
    800042b0:	10078513          	addi	a0,a5,256 # 60050100 <_start-0x1ffaff08>
    800042b4:	a9dff0ef          	jal	ra,80003d50 <Xil_Out32>
    800042b8:	fe442783          	lw	a5,-28(s0)
    800042bc:	0007879b          	sext.w	a5,a5
    800042c0:	00078713          	mv	a4,a5
    800042c4:	00100793          	li	a5,1
    800042c8:	f6f716e3          	bne	a4,a5,80004234 <EepromWriteByte+0x94>
    800042cc:	00003797          	auipc	a5,0x3
    800042d0:	f6c78793          	addi	a5,a5,-148 # 80007238 <EepromIicAddr>
    800042d4:	0007c783          	lbu	a5,0(a5)
    800042d8:	fc840613          	addi	a2,s0,-56
    800042dc:	00000713          	li	a4,0
    800042e0:	01100693          	li	a3,17
    800042e4:	00078593          	mv	a1,a5
    800042e8:	60050537          	lui	a0,0x60050
    800042ec:	d29fe0ef          	jal	ra,80003014 <XIic_Send>
    800042f0:	00050793          	mv	a5,a0
    800042f4:	0007879b          	sext.w	a5,a5
    800042f8:	fef42223          	sw	a5,-28(s0)
    800042fc:	00003797          	auipc	a5,0x3
    80004300:	f3c78793          	addi	a5,a5,-196 # 80007238 <EepromIicAddr>
    80004304:	0007c783          	lbu	a5,0(a5)
    80004308:	fbf40613          	addi	a2,s0,-65
    8000430c:	00000713          	li	a4,0
    80004310:	00100693          	li	a3,1
    80004314:	00078593          	mv	a1,a5
    80004318:	60050537          	lui	a0,0x60050
    8000431c:	cf9fe0ef          	jal	ra,80003014 <XIic_Send>
    80004320:	00050793          	mv	a5,a0
    80004324:	0007879b          	sext.w	a5,a5
    80004328:	fef42023          	sw	a5,-32(s0)
    8000432c:	fe042783          	lw	a5,-32(s0)
    80004330:	0007879b          	sext.w	a5,a5
    80004334:	00078713          	mv	a4,a5
    80004338:	00100793          	li	a5,1
    8000433c:	04f70263          	beq	a4,a5,80004380 <EepromWriteByte+0x1e0>
    80004340:	600507b7          	lui	a5,0x60050
    80004344:	10078513          	addi	a0,a5,256 # 60050100 <_start-0x1ffaff08>
    80004348:	9ddff0ef          	jal	ra,80003d24 <Xil_In32>
    8000434c:	00050793          	mv	a5,a0
    80004350:	fef42423          	sw	a5,-24(s0)
    80004354:	fe842783          	lw	a5,-24(s0)
    80004358:	0027e793          	ori	a5,a5,2
    8000435c:	0007879b          	sext.w	a5,a5
    80004360:	00078593          	mv	a1,a5
    80004364:	600507b7          	lui	a5,0x60050
    80004368:	10078513          	addi	a0,a5,256 # 60050100 <_start-0x1ffaff08>
    8000436c:	9e5ff0ef          	jal	ra,80003d50 <Xil_Out32>
    80004370:	00100593          	li	a1,1
    80004374:	600507b7          	lui	a5,0x60050
    80004378:	10078513          	addi	a0,a5,256 # 60050100 <_start-0x1ffaff08>
    8000437c:	9d5ff0ef          	jal	ra,80003d50 <Xil_Out32>
    80004380:	fe042783          	lw	a5,-32(s0)
    80004384:	0007879b          	sext.w	a5,a5
    80004388:	00078713          	mv	a4,a5
    8000438c:	00100793          	li	a5,1
    80004390:	f6f716e3          	bne	a4,a5,800042fc <EepromWriteByte+0x15c>
    80004394:	fe442783          	lw	a5,-28(s0)
    80004398:	0007879b          	sext.w	a5,a5
    8000439c:	fff7879b          	addiw	a5,a5,-1
    800043a0:	0007879b          	sext.w	a5,a5
    800043a4:	00078513          	mv	a0,a5
    800043a8:	04813083          	ld	ra,72(sp)
    800043ac:	04013403          	ld	s0,64(sp)
    800043b0:	05010113          	addi	sp,sp,80
    800043b4:	00008067          	ret

00000000800043b8 <EepromReadByte>:
    800043b8:	fd010113          	addi	sp,sp,-48
    800043bc:	02113423          	sd	ra,40(sp)
    800043c0:	02813023          	sd	s0,32(sp)
    800043c4:	03010413          	addi	s0,sp,48
    800043c8:	00050793          	mv	a5,a0
    800043cc:	fcb43823          	sd	a1,-48(s0)
    800043d0:	00060713          	mv	a4,a2
    800043d4:	fcf40fa3          	sb	a5,-33(s0)
    800043d8:	00070793          	mv	a5,a4
    800043dc:	fcf41e23          	sh	a5,-36(s0)
    800043e0:	600507b7          	lui	a5,0x60050
    800043e4:	10478513          	addi	a0,a5,260 # 60050104 <_start-0x1ffaff04>
    800043e8:	93dff0ef          	jal	ra,80003d24 <Xil_In32>
    800043ec:	00050793          	mv	a5,a0
    800043f0:	0007879b          	sext.w	a5,a5
    800043f4:	fef41723          	sh	a5,-18(s0)
    800043f8:	fee45783          	lhu	a5,-18(s0)
    800043fc:	0007879b          	sext.w	a5,a5
    80004400:	0047f793          	andi	a5,a5,4
    80004404:	0007879b          	sext.w	a5,a5
    80004408:	08079463          	bnez	a5,80004490 <EepromReadByte+0xd8>
    8000440c:	00003797          	auipc	a5,0x3
    80004410:	e2c78793          	addi	a5,a5,-468 # 80007238 <EepromIicAddr>
    80004414:	0007c783          	lbu	a5,0(a5)
    80004418:	fdf40613          	addi	a2,s0,-33
    8000441c:	00000713          	li	a4,0
    80004420:	00100693          	li	a3,1
    80004424:	00078593          	mv	a1,a5
    80004428:	60050537          	lui	a0,0x60050
    8000442c:	be9fe0ef          	jal	ra,80003014 <XIic_Send>
    80004430:	00050793          	mv	a5,a0
    80004434:	0007879b          	sext.w	a5,a5
    80004438:	fef42223          	sw	a5,-28(s0)
    8000443c:	fe442783          	lw	a5,-28(s0)
    80004440:	0007879b          	sext.w	a5,a5
    80004444:	00078713          	mv	a4,a5
    80004448:	00100793          	li	a5,1
    8000444c:	04f70263          	beq	a4,a5,80004490 <EepromReadByte+0xd8>
    80004450:	600507b7          	lui	a5,0x60050
    80004454:	10078513          	addi	a0,a5,256 # 60050100 <_start-0x1ffaff08>
    80004458:	8cdff0ef          	jal	ra,80003d24 <Xil_In32>
    8000445c:	00050793          	mv	a5,a0
    80004460:	fef42423          	sw	a5,-24(s0)
    80004464:	fe842783          	lw	a5,-24(s0)
    80004468:	0027e793          	ori	a5,a5,2
    8000446c:	0007879b          	sext.w	a5,a5
    80004470:	00078593          	mv	a1,a5
    80004474:	600507b7          	lui	a5,0x60050
    80004478:	10078513          	addi	a0,a5,256 # 60050100 <_start-0x1ffaff08>
    8000447c:	8d5ff0ef          	jal	ra,80003d50 <Xil_Out32>
    80004480:	00100593          	li	a1,1
    80004484:	600507b7          	lui	a5,0x60050
    80004488:	10078513          	addi	a0,a5,256 # 60050100 <_start-0x1ffaff08>
    8000448c:	8c5ff0ef          	jal	ra,80003d50 <Xil_Out32>
    80004490:	fe442783          	lw	a5,-28(s0)
    80004494:	0007879b          	sext.w	a5,a5
    80004498:	00078713          	mv	a4,a5
    8000449c:	00100793          	li	a5,1
    800044a0:	f4f710e3          	bne	a4,a5,800043e0 <EepromReadByte+0x28>
    800044a4:	00003797          	auipc	a5,0x3
    800044a8:	d9478793          	addi	a5,a5,-620 # 80007238 <EepromIicAddr>
    800044ac:	0007c783          	lbu	a5,0(a5)
    800044b0:	fdc45703          	lhu	a4,-36(s0)
    800044b4:	0007069b          	sext.w	a3,a4
    800044b8:	00000713          	li	a4,0
    800044bc:	fd043603          	ld	a2,-48(s0)
    800044c0:	00078593          	mv	a1,a5
    800044c4:	60050537          	lui	a0,0x60050
    800044c8:	e7cfe0ef          	jal	ra,80002b44 <XIic_Recv>
    800044cc:	00050793          	mv	a5,a0
    800044d0:	0007879b          	sext.w	a5,a5
    800044d4:	fef42223          	sw	a5,-28(s0)
    800044d8:	fe442783          	lw	a5,-28(s0)
    800044dc:	0007879b          	sext.w	a5,a5
    800044e0:	00078513          	mv	a0,a5
    800044e4:	02813083          	ld	ra,40(sp)
    800044e8:	02013403          	ld	s0,32(sp)
    800044ec:	03010113          	addi	sp,sp,48
    800044f0:	00008067          	ret

00000000800044f4 <Xil_In32>:
    800044f4:	fe010113          	addi	sp,sp,-32
    800044f8:	00813c23          	sd	s0,24(sp)
    800044fc:	02010413          	addi	s0,sp,32
    80004500:	fea43423          	sd	a0,-24(s0)
    80004504:	fe843783          	ld	a5,-24(s0)
    80004508:	0007a783          	lw	a5,0(a5)
    8000450c:	0007879b          	sext.w	a5,a5
    80004510:	00078513          	mv	a0,a5
    80004514:	01813403          	ld	s0,24(sp)
    80004518:	02010113          	addi	sp,sp,32
    8000451c:	00008067          	ret

0000000080004520 <Xil_Out32>:
    80004520:	fd010113          	addi	sp,sp,-48
    80004524:	02813423          	sd	s0,40(sp)
    80004528:	03010413          	addi	s0,sp,48
    8000452c:	fca43c23          	sd	a0,-40(s0)
    80004530:	00058793          	mv	a5,a1
    80004534:	fcf42a23          	sw	a5,-44(s0)
    80004538:	fd843783          	ld	a5,-40(s0)
    8000453c:	fef43423          	sd	a5,-24(s0)
    80004540:	fe843783          	ld	a5,-24(s0)
    80004544:	fd442703          	lw	a4,-44(s0)
    80004548:	00e7a023          	sw	a4,0(a5)
    8000454c:	00000013          	nop
    80004550:	02813403          	ld	s0,40(sp)
    80004554:	03010113          	addi	sp,sp,48
    80004558:	00008067          	ret

000000008000455c <XIic_MasterSend>:
    8000455c:	fb010113          	addi	sp,sp,-80
    80004560:	04113423          	sd	ra,72(sp)
    80004564:	04813023          	sd	s0,64(sp)
    80004568:	02913c23          	sd	s1,56(sp)
    8000456c:	05010413          	addi	s0,sp,80
    80004570:	fca43423          	sd	a0,-56(s0)
    80004574:	fcb43023          	sd	a1,-64(s0)
    80004578:	00060793          	mv	a5,a2
    8000457c:	faf42e23          	sw	a5,-68(s0)
    80004580:	fc843783          	ld	a5,-56(s0)
    80004584:	0107b783          	ld	a5,16(a5)
    80004588:	01c78793          	addi	a5,a5,28
    8000458c:	00000593          	li	a1,0
    80004590:	00078513          	mv	a0,a5
    80004594:	f8dff0ef          	jal	ra,80004520 <Xil_Out32>
    80004598:	00003797          	auipc	a5,0x3
    8000459c:	c7078793          	addi	a5,a5,-912 # 80007208 <XIic_RecvMasterFuncPtr>
    800045a0:	00001717          	auipc	a4,0x1
    800045a4:	e6870713          	addi	a4,a4,-408 # 80005408 <RecvMasterData>
    800045a8:	00e7b023          	sd	a4,0(a5)
    800045ac:	00003797          	auipc	a5,0x3
    800045b0:	c6478793          	addi	a5,a5,-924 # 80007210 <XIic_SendMasterFuncPtr>
    800045b4:	00001717          	auipc	a4,0x1
    800045b8:	b1470713          	addi	a4,a4,-1260 # 800050c8 <SendMasterData>
    800045bc:	00e7b023          	sd	a4,0(a5)
    800045c0:	fc843783          	ld	a5,-56(s0)
    800045c4:	0807a423          	sw	zero,136(a5)
    800045c8:	fc843503          	ld	a0,-56(s0)
    800045cc:	081000ef          	jal	ra,80004e4c <IsBusBusy>
    800045d0:	00050793          	mv	a5,a0
    800045d4:	02078263          	beqz	a5,800045f8 <XIic_MasterSend+0x9c>
    800045d8:	fc843783          	ld	a5,-56(s0)
    800045dc:	0107b783          	ld	a5,16(a5)
    800045e0:	01c78793          	addi	a5,a5,28
    800045e4:	800005b7          	lui	a1,0x80000
    800045e8:	00078513          	mv	a0,a5
    800045ec:	f35ff0ef          	jal	ra,80004520 <Xil_Out32>
    800045f0:	43500793          	li	a5,1077
    800045f4:	3200006f          	j	80004914 <XIic_MasterSend+0x3b8>
    800045f8:	fc843783          	ld	a5,-56(s0)
    800045fc:	0107b783          	ld	a5,16(a5)
    80004600:	10078793          	addi	a5,a5,256
    80004604:	00078513          	mv	a0,a5
    80004608:	eedff0ef          	jal	ra,800044f4 <Xil_In32>
    8000460c:	00050793          	mv	a5,a0
    80004610:	fcf42e23          	sw	a5,-36(s0)
    80004614:	fdc42783          	lw	a5,-36(s0)
    80004618:	0047f793          	andi	a5,a5,4
    8000461c:	0007879b          	sext.w	a5,a5
    80004620:	04078863          	beqz	a5,80004670 <XIic_MasterSend+0x114>
    80004624:	fdc42783          	lw	a5,-36(s0)
    80004628:	fef7f793          	andi	a5,a5,-17
    8000462c:	fcf42e23          	sw	a5,-36(s0)
    80004630:	fdc42783          	lw	a5,-36(s0)
    80004634:	0287e793          	ori	a5,a5,40
    80004638:	fcf42e23          	sw	a5,-36(s0)
    8000463c:	fc843783          	ld	a5,-56(s0)
    80004640:	0107b783          	ld	a5,16(a5)
    80004644:	10078793          	addi	a5,a5,256
    80004648:	fdc42703          	lw	a4,-36(s0)
    8000464c:	00070593          	mv	a1,a4
    80004650:	00078513          	mv	a0,a5
    80004654:	ecdff0ef          	jal	ra,80004520 <Xil_Out32>
    80004658:	fc843783          	ld	a5,-56(s0)
    8000465c:	0017c783          	lbu	a5,1(a5)
    80004660:	0017879b          	addiw	a5,a5,1
    80004664:	0ff7f713          	andi	a4,a5,255
    80004668:	fc843783          	ld	a5,-56(s0)
    8000466c:	00e780a3          	sb	a4,1(a5)
    80004670:	fc843783          	ld	a5,-56(s0)
    80004674:	fbc42703          	lw	a4,-68(s0)
    80004678:	04e7a223          	sw	a4,68(a5)
    8000467c:	fc843783          	ld	a5,-56(s0)
    80004680:	fc043703          	ld	a4,-64(s0)
    80004684:	02e7b823          	sd	a4,48(a5)
    80004688:	fc843783          	ld	a5,-56(s0)
    8000468c:	0207bc23          	sd	zero,56(a5)
    80004690:	fc843783          	ld	a5,-56(s0)
    80004694:	0287a783          	lw	a5,40(a5)
    80004698:	0047f793          	andi	a5,a5,4
    8000469c:	0007879b          	sext.w	a5,a5
    800046a0:	08078663          	beqz	a5,8000472c <XIic_MasterSend+0x1d0>
    800046a4:	fc843783          	ld	a5,-56(s0)
    800046a8:	0247a783          	lw	a5,36(a5)
    800046ac:	08078063          	beqz	a5,8000472c <XIic_MasterSend+0x1d0>
    800046b0:	fc843783          	ld	a5,-56(s0)
    800046b4:	0247a783          	lw	a5,36(a5)
    800046b8:	4077d79b          	sraiw	a5,a5,0x7
    800046bc:	0007879b          	sext.w	a5,a5
    800046c0:	fcf40da3          	sb	a5,-37(s0)
    800046c4:	fdb40783          	lb	a5,-37(s0)
    800046c8:	0067f793          	andi	a5,a5,6
    800046cc:	0187979b          	slliw	a5,a5,0x18
    800046d0:	4187d79b          	sraiw	a5,a5,0x18
    800046d4:	ff07e793          	ori	a5,a5,-16
    800046d8:	0187979b          	slliw	a5,a5,0x18
    800046dc:	4187d79b          	sraiw	a5,a5,0x18
    800046e0:	fcf40da3          	sb	a5,-37(s0)
    800046e4:	fc843783          	ld	a5,-56(s0)
    800046e8:	0107b783          	ld	a5,16(a5)
    800046ec:	10878793          	addi	a5,a5,264
    800046f0:	fdb44703          	lbu	a4,-37(s0)
    800046f4:	0007071b          	sext.w	a4,a4
    800046f8:	00070593          	mv	a1,a4
    800046fc:	00078513          	mv	a0,a5
    80004700:	e21ff0ef          	jal	ra,80004520 <Xil_Out32>
    80004704:	fc843783          	ld	a5,-56(s0)
    80004708:	0107b783          	ld	a5,16(a5)
    8000470c:	10878713          	addi	a4,a5,264
    80004710:	fc843783          	ld	a5,-56(s0)
    80004714:	0247a783          	lw	a5,36(a5)
    80004718:	0007879b          	sext.w	a5,a5
    8000471c:	00078593          	mv	a1,a5
    80004720:	00070513          	mv	a0,a4
    80004724:	dfdff0ef          	jal	ra,80004520 <Xil_Out32>
    80004728:	0440006f          	j	8000476c <XIic_MasterSend+0x210>
    8000472c:	fc843783          	ld	a5,-56(s0)
    80004730:	0247a783          	lw	a5,36(a5)
    80004734:	0ff7f793          	andi	a5,a5,255
    80004738:	0017979b          	slliw	a5,a5,0x1
    8000473c:	fcf40d23          	sb	a5,-38(s0)
    80004740:	fda44783          	lbu	a5,-38(s0)
    80004744:	ffe7f793          	andi	a5,a5,-2
    80004748:	fcf40d23          	sb	a5,-38(s0)
    8000474c:	fc843783          	ld	a5,-56(s0)
    80004750:	0107b783          	ld	a5,16(a5)
    80004754:	10878793          	addi	a5,a5,264
    80004758:	fda44703          	lbu	a4,-38(s0)
    8000475c:	0007071b          	sext.w	a4,a4
    80004760:	00070593          	mv	a1,a4
    80004764:	00078513          	mv	a0,a5
    80004768:	db9ff0ef          	jal	ra,80004520 <Xil_Out32>
    8000476c:	fc843783          	ld	a5,-56(s0)
    80004770:	04078023          	sb	zero,64(a5)
    80004774:	fc843783          	ld	a5,-56(s0)
    80004778:	0447a783          	lw	a5,68(a5)
    8000477c:	00078713          	mv	a4,a5
    80004780:	00100793          	li	a5,1
    80004784:	00e7d863          	bge	a5,a4,80004794 <XIic_MasterSend+0x238>
    80004788:	00100593          	li	a1,1
    8000478c:	fc843503          	ld	a0,-56(s0)
    80004790:	ecdfd0ef          	jal	ra,8000265c <XIic_TransmitFifoFill>
    80004794:	fc843783          	ld	a5,-56(s0)
    80004798:	0447a783          	lw	a5,68(a5)
    8000479c:	00078713          	mv	a4,a5
    800047a0:	00100793          	li	a5,1
    800047a4:	06e7de63          	bge	a5,a4,80004820 <XIic_MasterSend+0x2c4>
    800047a8:	fc843783          	ld	a5,-56(s0)
    800047ac:	0107b783          	ld	a5,16(a5)
    800047b0:	02078493          	addi	s1,a5,32
    800047b4:	fc843783          	ld	a5,-56(s0)
    800047b8:	0107b783          	ld	a5,16(a5)
    800047bc:	02078793          	addi	a5,a5,32
    800047c0:	00078513          	mv	a0,a5
    800047c4:	d31ff0ef          	jal	ra,800044f4 <Xil_In32>
    800047c8:	00050793          	mv	a5,a0
    800047cc:	0007879b          	sext.w	a5,a5
    800047d0:	0807f793          	andi	a5,a5,128
    800047d4:	0007879b          	sext.w	a5,a5
    800047d8:	00078593          	mv	a1,a5
    800047dc:	00048513          	mv	a0,s1
    800047e0:	d41ff0ef          	jal	ra,80004520 <Xil_Out32>
    800047e4:	fc843783          	ld	a5,-56(s0)
    800047e8:	0107b783          	ld	a5,16(a5)
    800047ec:	02878493          	addi	s1,a5,40
    800047f0:	fc843783          	ld	a5,-56(s0)
    800047f4:	0107b783          	ld	a5,16(a5)
    800047f8:	02878793          	addi	a5,a5,40
    800047fc:	00078513          	mv	a0,a5
    80004800:	cf5ff0ef          	jal	ra,800044f4 <Xil_In32>
    80004804:	00050793          	mv	a5,a0
    80004808:	0007879b          	sext.w	a5,a5
    8000480c:	0807e793          	ori	a5,a5,128
    80004810:	0007879b          	sext.w	a5,a5
    80004814:	00078593          	mv	a1,a5
    80004818:	00048513          	mv	a0,s1
    8000481c:	d05ff0ef          	jal	ra,80004520 <Xil_Out32>
    80004820:	fc843783          	ld	a5,-56(s0)
    80004824:	0107b783          	ld	a5,16(a5)
    80004828:	02078493          	addi	s1,a5,32
    8000482c:	fc843783          	ld	a5,-56(s0)
    80004830:	0107b783          	ld	a5,16(a5)
    80004834:	02078793          	addi	a5,a5,32
    80004838:	00078513          	mv	a0,a5
    8000483c:	cb9ff0ef          	jal	ra,800044f4 <Xil_In32>
    80004840:	00050793          	mv	a5,a0
    80004844:	0007879b          	sext.w	a5,a5
    80004848:	0067f793          	andi	a5,a5,6
    8000484c:	0007879b          	sext.w	a5,a5
    80004850:	00078593          	mv	a1,a5
    80004854:	00048513          	mv	a0,s1
    80004858:	cc9ff0ef          	jal	ra,80004520 <Xil_Out32>
    8000485c:	fc843783          	ld	a5,-56(s0)
    80004860:	0107b783          	ld	a5,16(a5)
    80004864:	02878493          	addi	s1,a5,40
    80004868:	fc843783          	ld	a5,-56(s0)
    8000486c:	0107b783          	ld	a5,16(a5)
    80004870:	02878793          	addi	a5,a5,40
    80004874:	00078513          	mv	a0,a5
    80004878:	c7dff0ef          	jal	ra,800044f4 <Xil_In32>
    8000487c:	00050793          	mv	a5,a0
    80004880:	0007879b          	sext.w	a5,a5
    80004884:	0067e793          	ori	a5,a5,6
    80004888:	0007879b          	sext.w	a5,a5
    8000488c:	00078593          	mv	a1,a5
    80004890:	00048513          	mv	a0,s1
    80004894:	c8dff0ef          	jal	ra,80004520 <Xil_Out32>
    80004898:	fc843783          	ld	a5,-56(s0)
    8000489c:	0107b783          	ld	a5,16(a5)
    800048a0:	10078793          	addi	a5,a5,256
    800048a4:	00078513          	mv	a0,a5
    800048a8:	c4dff0ef          	jal	ra,800044f4 <Xil_In32>
    800048ac:	00050793          	mv	a5,a0
    800048b0:	fcf42e23          	sw	a5,-36(s0)
    800048b4:	fdc42783          	lw	a5,-36(s0)
    800048b8:	0047f793          	andi	a5,a5,4
    800048bc:	0007879b          	sext.w	a5,a5
    800048c0:	02079c63          	bnez	a5,800048f8 <XIic_MasterSend+0x39c>
    800048c4:	fdc42783          	lw	a5,-36(s0)
    800048c8:	fef7f793          	andi	a5,a5,-17
    800048cc:	fcf42e23          	sw	a5,-36(s0)
    800048d0:	fdc42783          	lw	a5,-36(s0)
    800048d4:	00c7e793          	ori	a5,a5,12
    800048d8:	fcf42e23          	sw	a5,-36(s0)
    800048dc:	fc843783          	ld	a5,-56(s0)
    800048e0:	0107b783          	ld	a5,16(a5)
    800048e4:	10078793          	addi	a5,a5,256
    800048e8:	fdc42703          	lw	a4,-36(s0)
    800048ec:	00070593          	mv	a1,a4
    800048f0:	00078513          	mv	a0,a5
    800048f4:	c2dff0ef          	jal	ra,80004520 <Xil_Out32>
    800048f8:	fc843783          	ld	a5,-56(s0)
    800048fc:	0107b783          	ld	a5,16(a5)
    80004900:	01c78793          	addi	a5,a5,28
    80004904:	800005b7          	lui	a1,0x80000
    80004908:	00078513          	mv	a0,a5
    8000490c:	c15ff0ef          	jal	ra,80004520 <Xil_Out32>
    80004910:	00000793          	li	a5,0
    80004914:	00078513          	mv	a0,a5
    80004918:	04813083          	ld	ra,72(sp)
    8000491c:	04013403          	ld	s0,64(sp)
    80004920:	03813483          	ld	s1,56(sp)
    80004924:	05010113          	addi	sp,sp,80
    80004928:	00008067          	ret

000000008000492c <XIic_MasterRecv>:
    8000492c:	fb010113          	addi	sp,sp,-80
    80004930:	04113423          	sd	ra,72(sp)
    80004934:	04813023          	sd	s0,64(sp)
    80004938:	02913c23          	sd	s1,56(sp)
    8000493c:	05010413          	addi	s0,sp,80
    80004940:	fca43423          	sd	a0,-56(s0)
    80004944:	fcb43023          	sd	a1,-64(s0)
    80004948:	00060793          	mv	a5,a2
    8000494c:	faf42e23          	sw	a5,-68(s0)
    80004950:	fc843783          	ld	a5,-56(s0)
    80004954:	0247a783          	lw	a5,36(a5)
    80004958:	00079663          	bnez	a5,80004964 <XIic_MasterRecv+0x38>
    8000495c:	43600793          	li	a5,1078
    80004960:	4d40006f          	j	80004e34 <XIic_MasterRecv+0x508>
    80004964:	fc843783          	ld	a5,-56(s0)
    80004968:	0107b783          	ld	a5,16(a5)
    8000496c:	01c78793          	addi	a5,a5,28
    80004970:	00000593          	li	a1,0
    80004974:	00078513          	mv	a0,a5
    80004978:	ba9ff0ef          	jal	ra,80004520 <Xil_Out32>
    8000497c:	00003797          	auipc	a5,0x3
    80004980:	88c78793          	addi	a5,a5,-1908 # 80007208 <XIic_RecvMasterFuncPtr>
    80004984:	00001717          	auipc	a4,0x1
    80004988:	a8470713          	addi	a4,a4,-1404 # 80005408 <RecvMasterData>
    8000498c:	00e7b023          	sd	a4,0(a5)
    80004990:	00003797          	auipc	a5,0x3
    80004994:	88078793          	addi	a5,a5,-1920 # 80007210 <XIic_SendMasterFuncPtr>
    80004998:	00000717          	auipc	a4,0x0
    8000499c:	73070713          	addi	a4,a4,1840 # 800050c8 <SendMasterData>
    800049a0:	00e7b023          	sd	a4,0(a5)
    800049a4:	fc843783          	ld	a5,-56(s0)
    800049a8:	0807a423          	sw	zero,136(a5)
    800049ac:	fc843503          	ld	a0,-56(s0)
    800049b0:	49c000ef          	jal	ra,80004e4c <IsBusBusy>
    800049b4:	00050793          	mv	a5,a0
    800049b8:	02078263          	beqz	a5,800049dc <XIic_MasterRecv+0xb0>
    800049bc:	fc843783          	ld	a5,-56(s0)
    800049c0:	0107b783          	ld	a5,16(a5)
    800049c4:	01c78793          	addi	a5,a5,28
    800049c8:	800005b7          	lui	a1,0x80000
    800049cc:	00078513          	mv	a0,a5
    800049d0:	b51ff0ef          	jal	ra,80004520 <Xil_Out32>
    800049d4:	43500793          	li	a5,1077
    800049d8:	45c0006f          	j	80004e34 <XIic_MasterRecv+0x508>
    800049dc:	fc843783          	ld	a5,-56(s0)
    800049e0:	fbc42703          	lw	a4,-68(s0)
    800049e4:	04e7a423          	sw	a4,72(a5)
    800049e8:	fc843783          	ld	a5,-56(s0)
    800049ec:	fc043703          	ld	a4,-64(s0)
    800049f0:	02e7bc23          	sd	a4,56(a5)
    800049f4:	fc843783          	ld	a5,-56(s0)
    800049f8:	0207b823          	sd	zero,48(a5)
    800049fc:	fc843783          	ld	a5,-56(s0)
    80004a00:	0287a783          	lw	a5,40(a5)
    80004a04:	0047f793          	andi	a5,a5,4
    80004a08:	0007879b          	sext.w	a5,a5
    80004a0c:	06079e63          	bnez	a5,80004a88 <XIic_MasterRecv+0x15c>
    80004a10:	fc843783          	ld	a5,-56(s0)
    80004a14:	0107b783          	ld	a5,16(a5)
    80004a18:	02078493          	addi	s1,a5,32
    80004a1c:	fc843783          	ld	a5,-56(s0)
    80004a20:	0107b783          	ld	a5,16(a5)
    80004a24:	02078793          	addi	a5,a5,32
    80004a28:	00078513          	mv	a0,a5
    80004a2c:	ac9ff0ef          	jal	ra,800044f4 <Xil_In32>
    80004a30:	00050793          	mv	a5,a0
    80004a34:	0007879b          	sext.w	a5,a5
    80004a38:	0087f793          	andi	a5,a5,8
    80004a3c:	0007879b          	sext.w	a5,a5
    80004a40:	00078593          	mv	a1,a5
    80004a44:	00048513          	mv	a0,s1
    80004a48:	ad9ff0ef          	jal	ra,80004520 <Xil_Out32>
    80004a4c:	fc843783          	ld	a5,-56(s0)
    80004a50:	0107b783          	ld	a5,16(a5)
    80004a54:	02878493          	addi	s1,a5,40
    80004a58:	fc843783          	ld	a5,-56(s0)
    80004a5c:	0107b783          	ld	a5,16(a5)
    80004a60:	02878793          	addi	a5,a5,40
    80004a64:	00078513          	mv	a0,a5
    80004a68:	a8dff0ef          	jal	ra,800044f4 <Xil_In32>
    80004a6c:	00050793          	mv	a5,a0
    80004a70:	0007879b          	sext.w	a5,a5
    80004a74:	0087e793          	ori	a5,a5,8
    80004a78:	0007879b          	sext.w	a5,a5
    80004a7c:	00078593          	mv	a1,a5
    80004a80:	00048513          	mv	a0,s1
    80004a84:	a9dff0ef          	jal	ra,80004520 <Xil_Out32>
    80004a88:	fc843783          	ld	a5,-56(s0)
    80004a8c:	0107b783          	ld	a5,16(a5)
    80004a90:	10078793          	addi	a5,a5,256
    80004a94:	00078513          	mv	a0,a5
    80004a98:	a5dff0ef          	jal	ra,800044f4 <Xil_In32>
    80004a9c:	00050793          	mv	a5,a0
    80004aa0:	fcf42e23          	sw	a5,-36(s0)
    80004aa4:	fdc42783          	lw	a5,-36(s0)
    80004aa8:	0047f793          	andi	a5,a5,4
    80004aac:	0007879b          	sext.w	a5,a5
    80004ab0:	08078863          	beqz	a5,80004b40 <XIic_MasterRecv+0x214>
    80004ab4:	fdc42783          	lw	a5,-36(s0)
    80004ab8:	0207e793          	ori	a5,a5,32
    80004abc:	fcf42e23          	sw	a5,-36(s0)
    80004ac0:	fdc42783          	lw	a5,-36(s0)
    80004ac4:	fe77f793          	andi	a5,a5,-25
    80004ac8:	fcf42e23          	sw	a5,-36(s0)
    80004acc:	fc843783          	ld	a5,-56(s0)
    80004ad0:	0287a783          	lw	a5,40(a5)
    80004ad4:	0047f793          	andi	a5,a5,4
    80004ad8:	0007879b          	sext.w	a5,a5
    80004adc:	00078a63          	beqz	a5,80004af0 <XIic_MasterRecv+0x1c4>
    80004ae0:	fdc42783          	lw	a5,-36(s0)
    80004ae4:	0087e793          	ori	a5,a5,8
    80004ae8:	fcf42e23          	sw	a5,-36(s0)
    80004aec:	0200006f          	j	80004b0c <XIic_MasterRecv+0x1e0>
    80004af0:	fbc42783          	lw	a5,-68(s0)
    80004af4:	0007871b          	sext.w	a4,a5
    80004af8:	00100793          	li	a5,1
    80004afc:	00f71863          	bne	a4,a5,80004b0c <XIic_MasterRecv+0x1e0>
    80004b00:	fdc42783          	lw	a5,-36(s0)
    80004b04:	0107e793          	ori	a5,a5,16
    80004b08:	fcf42e23          	sw	a5,-36(s0)
    80004b0c:	fc843783          	ld	a5,-56(s0)
    80004b10:	0017c783          	lbu	a5,1(a5)
    80004b14:	0017879b          	addiw	a5,a5,1
    80004b18:	0ff7f713          	andi	a4,a5,255
    80004b1c:	fc843783          	ld	a5,-56(s0)
    80004b20:	00e780a3          	sb	a4,1(a5)
    80004b24:	fc843783          	ld	a5,-56(s0)
    80004b28:	0107b783          	ld	a5,16(a5)
    80004b2c:	10078793          	addi	a5,a5,256
    80004b30:	fdc42703          	lw	a4,-36(s0)
    80004b34:	00070593          	mv	a1,a4
    80004b38:	00078513          	mv	a0,a5
    80004b3c:	9e5ff0ef          	jal	ra,80004520 <Xil_Out32>
    80004b40:	fbc42783          	lw	a5,-68(s0)
    80004b44:	0007871b          	sext.w	a4,a5
    80004b48:	00100793          	li	a5,1
    80004b4c:	00f71663          	bne	a4,a5,80004b58 <XIic_MasterRecv+0x22c>
    80004b50:	fc040da3          	sb	zero,-37(s0)
    80004b54:	0300006f          	j	80004b84 <XIic_MasterRecv+0x258>
    80004b58:	fbc42783          	lw	a5,-68(s0)
    80004b5c:	0007871b          	sext.w	a4,a5
    80004b60:	01000793          	li	a5,16
    80004b64:	00e7cc63          	blt	a5,a4,80004b7c <XIic_MasterRecv+0x250>
    80004b68:	fbc42783          	lw	a5,-68(s0)
    80004b6c:	0ff7f793          	andi	a5,a5,255
    80004b70:	ffe7879b          	addiw	a5,a5,-2
    80004b74:	fcf40da3          	sb	a5,-37(s0)
    80004b78:	00c0006f          	j	80004b84 <XIic_MasterRecv+0x258>
    80004b7c:	00f00793          	li	a5,15
    80004b80:	fcf40da3          	sb	a5,-37(s0)
    80004b84:	fc843783          	ld	a5,-56(s0)
    80004b88:	0107b783          	ld	a5,16(a5)
    80004b8c:	12078793          	addi	a5,a5,288
    80004b90:	fdb44703          	lbu	a4,-37(s0)
    80004b94:	0007071b          	sext.w	a4,a4
    80004b98:	00070593          	mv	a1,a4
    80004b9c:	00078513          	mv	a0,a5
    80004ba0:	981ff0ef          	jal	ra,80004520 <Xil_Out32>
    80004ba4:	fc843783          	ld	a5,-56(s0)
    80004ba8:	0287a783          	lw	a5,40(a5)
    80004bac:	0047f793          	andi	a5,a5,4
    80004bb0:	0007879b          	sext.w	a5,a5
    80004bb4:	10078263          	beqz	a5,80004cb8 <XIic_MasterRecv+0x38c>
    80004bb8:	fc843783          	ld	a5,-56(s0)
    80004bbc:	0247a783          	lw	a5,36(a5)
    80004bc0:	4077d79b          	sraiw	a5,a5,0x7
    80004bc4:	0007879b          	sext.w	a5,a5
    80004bc8:	fcf40ca3          	sb	a5,-39(s0)
    80004bcc:	fd940783          	lb	a5,-39(s0)
    80004bd0:	0067f793          	andi	a5,a5,6
    80004bd4:	0187979b          	slliw	a5,a5,0x18
    80004bd8:	4187d79b          	sraiw	a5,a5,0x18
    80004bdc:	ff07e793          	ori	a5,a5,-16
    80004be0:	0187979b          	slliw	a5,a5,0x18
    80004be4:	4187d79b          	sraiw	a5,a5,0x18
    80004be8:	fcf40ca3          	sb	a5,-39(s0)
    80004bec:	fc843783          	ld	a5,-56(s0)
    80004bf0:	0107b783          	ld	a5,16(a5)
    80004bf4:	10878793          	addi	a5,a5,264
    80004bf8:	fd944703          	lbu	a4,-39(s0)
    80004bfc:	0007071b          	sext.w	a4,a4
    80004c00:	00070593          	mv	a1,a4
    80004c04:	00078513          	mv	a0,a5
    80004c08:	919ff0ef          	jal	ra,80004520 <Xil_Out32>
    80004c0c:	fc843783          	ld	a5,-56(s0)
    80004c10:	0107b783          	ld	a5,16(a5)
    80004c14:	10878713          	addi	a4,a5,264
    80004c18:	fc843783          	ld	a5,-56(s0)
    80004c1c:	0247a783          	lw	a5,36(a5)
    80004c20:	0007879b          	sext.w	a5,a5
    80004c24:	00078593          	mv	a1,a5
    80004c28:	00070513          	mv	a0,a4
    80004c2c:	8f5ff0ef          	jal	ra,80004520 <Xil_Out32>
    80004c30:	fc843783          	ld	a5,-56(s0)
    80004c34:	00200713          	li	a4,2
    80004c38:	04e78023          	sb	a4,64(a5)
    80004c3c:	fc843783          	ld	a5,-56(s0)
    80004c40:	0107b783          	ld	a5,16(a5)
    80004c44:	02078493          	addi	s1,a5,32
    80004c48:	fc843783          	ld	a5,-56(s0)
    80004c4c:	0107b783          	ld	a5,16(a5)
    80004c50:	02078793          	addi	a5,a5,32
    80004c54:	00078513          	mv	a0,a5
    80004c58:	89dff0ef          	jal	ra,800044f4 <Xil_In32>
    80004c5c:	00050793          	mv	a5,a0
    80004c60:	0007879b          	sext.w	a5,a5
    80004c64:	0047f793          	andi	a5,a5,4
    80004c68:	0007879b          	sext.w	a5,a5
    80004c6c:	00078593          	mv	a1,a5
    80004c70:	00048513          	mv	a0,s1
    80004c74:	8adff0ef          	jal	ra,80004520 <Xil_Out32>
    80004c78:	fc843783          	ld	a5,-56(s0)
    80004c7c:	0107b783          	ld	a5,16(a5)
    80004c80:	02878493          	addi	s1,a5,40
    80004c84:	fc843783          	ld	a5,-56(s0)
    80004c88:	0107b783          	ld	a5,16(a5)
    80004c8c:	02878793          	addi	a5,a5,40
    80004c90:	00078513          	mv	a0,a5
    80004c94:	861ff0ef          	jal	ra,800044f4 <Xil_In32>
    80004c98:	00050793          	mv	a5,a0
    80004c9c:	0007879b          	sext.w	a5,a5
    80004ca0:	0047e793          	ori	a5,a5,4
    80004ca4:	0007879b          	sext.w	a5,a5
    80004ca8:	00078593          	mv	a1,a5
    80004cac:	00048513          	mv	a0,s1
    80004cb0:	871ff0ef          	jal	ra,80004520 <Xil_Out32>
    80004cb4:	04c0006f          	j	80004d00 <XIic_MasterRecv+0x3d4>
    80004cb8:	fc843783          	ld	a5,-56(s0)
    80004cbc:	0247a783          	lw	a5,36(a5)
    80004cc0:	0ff7f793          	andi	a5,a5,255
    80004cc4:	0017979b          	slliw	a5,a5,0x1
    80004cc8:	fcf40d23          	sb	a5,-38(s0)
    80004ccc:	fda44783          	lbu	a5,-38(s0)
    80004cd0:	0017e793          	ori	a5,a5,1
    80004cd4:	fcf40d23          	sb	a5,-38(s0)
    80004cd8:	fc843783          	ld	a5,-56(s0)
    80004cdc:	0107b783          	ld	a5,16(a5)
    80004ce0:	10878793          	addi	a5,a5,264
    80004ce4:	fda44703          	lbu	a4,-38(s0)
    80004ce8:	0007071b          	sext.w	a4,a4
    80004cec:	00070593          	mv	a1,a4
    80004cf0:	00078513          	mv	a0,a5
    80004cf4:	82dff0ef          	jal	ra,80004520 <Xil_Out32>
    80004cf8:	fc843783          	ld	a5,-56(s0)
    80004cfc:	04078023          	sb	zero,64(a5)
    80004d00:	fc843783          	ld	a5,-56(s0)
    80004d04:	0107b783          	ld	a5,16(a5)
    80004d08:	02078493          	addi	s1,a5,32
    80004d0c:	fc843783          	ld	a5,-56(s0)
    80004d10:	0107b783          	ld	a5,16(a5)
    80004d14:	02078793          	addi	a5,a5,32
    80004d18:	00078513          	mv	a0,a5
    80004d1c:	fd8ff0ef          	jal	ra,800044f4 <Xil_In32>
    80004d20:	00050793          	mv	a5,a0
    80004d24:	0007879b          	sext.w	a5,a5
    80004d28:	0027f793          	andi	a5,a5,2
    80004d2c:	0007879b          	sext.w	a5,a5
    80004d30:	00078593          	mv	a1,a5
    80004d34:	00048513          	mv	a0,s1
    80004d38:	fe8ff0ef          	jal	ra,80004520 <Xil_Out32>
    80004d3c:	fc843783          	ld	a5,-56(s0)
    80004d40:	0107b783          	ld	a5,16(a5)
    80004d44:	02878493          	addi	s1,a5,40
    80004d48:	fc843783          	ld	a5,-56(s0)
    80004d4c:	0107b783          	ld	a5,16(a5)
    80004d50:	02878793          	addi	a5,a5,40
    80004d54:	00078513          	mv	a0,a5
    80004d58:	f9cff0ef          	jal	ra,800044f4 <Xil_In32>
    80004d5c:	00050793          	mv	a5,a0
    80004d60:	0007879b          	sext.w	a5,a5
    80004d64:	0027e793          	ori	a5,a5,2
    80004d68:	0007879b          	sext.w	a5,a5
    80004d6c:	00078593          	mv	a1,a5
    80004d70:	00048513          	mv	a0,s1
    80004d74:	facff0ef          	jal	ra,80004520 <Xil_Out32>
    80004d78:	fc843783          	ld	a5,-56(s0)
    80004d7c:	0107b783          	ld	a5,16(a5)
    80004d80:	10078793          	addi	a5,a5,256
    80004d84:	00078513          	mv	a0,a5
    80004d88:	f6cff0ef          	jal	ra,800044f4 <Xil_In32>
    80004d8c:	00050793          	mv	a5,a0
    80004d90:	fcf42e23          	sw	a5,-36(s0)
    80004d94:	fdc42783          	lw	a5,-36(s0)
    80004d98:	0047f793          	andi	a5,a5,4
    80004d9c:	0007879b          	sext.w	a5,a5
    80004da0:	06079c63          	bnez	a5,80004e18 <XIic_MasterRecv+0x4ec>
    80004da4:	fdc42783          	lw	a5,-36(s0)
    80004da8:	0047e793          	ori	a5,a5,4
    80004dac:	fcf42e23          	sw	a5,-36(s0)
    80004db0:	fdc42783          	lw	a5,-36(s0)
    80004db4:	fe77f793          	andi	a5,a5,-25
    80004db8:	fcf42e23          	sw	a5,-36(s0)
    80004dbc:	fc843783          	ld	a5,-56(s0)
    80004dc0:	0287a783          	lw	a5,40(a5)
    80004dc4:	0047f793          	andi	a5,a5,4
    80004dc8:	0007879b          	sext.w	a5,a5
    80004dcc:	00078a63          	beqz	a5,80004de0 <XIic_MasterRecv+0x4b4>
    80004dd0:	fdc42783          	lw	a5,-36(s0)
    80004dd4:	0087e793          	ori	a5,a5,8
    80004dd8:	fcf42e23          	sw	a5,-36(s0)
    80004ddc:	0200006f          	j	80004dfc <XIic_MasterRecv+0x4d0>
    80004de0:	fbc42783          	lw	a5,-68(s0)
    80004de4:	0007871b          	sext.w	a4,a5
    80004de8:	00100793          	li	a5,1
    80004dec:	00f71863          	bne	a4,a5,80004dfc <XIic_MasterRecv+0x4d0>
    80004df0:	fdc42783          	lw	a5,-36(s0)
    80004df4:	0107e793          	ori	a5,a5,16
    80004df8:	fcf42e23          	sw	a5,-36(s0)
    80004dfc:	fc843783          	ld	a5,-56(s0)
    80004e00:	0107b783          	ld	a5,16(a5)
    80004e04:	10078793          	addi	a5,a5,256
    80004e08:	fdc42703          	lw	a4,-36(s0)
    80004e0c:	00070593          	mv	a1,a4
    80004e10:	00078513          	mv	a0,a5
    80004e14:	f0cff0ef          	jal	ra,80004520 <Xil_Out32>
    80004e18:	fc843783          	ld	a5,-56(s0)
    80004e1c:	0107b783          	ld	a5,16(a5)
    80004e20:	01c78793          	addi	a5,a5,28
    80004e24:	800005b7          	lui	a1,0x80000
    80004e28:	00078513          	mv	a0,a5
    80004e2c:	ef4ff0ef          	jal	ra,80004520 <Xil_Out32>
    80004e30:	00000793          	li	a5,0
    80004e34:	00078513          	mv	a0,a5
    80004e38:	04813083          	ld	ra,72(sp)
    80004e3c:	04013403          	ld	s0,64(sp)
    80004e40:	03813483          	ld	s1,56(sp)
    80004e44:	05010113          	addi	sp,sp,80
    80004e48:	00008067          	ret

0000000080004e4c <IsBusBusy>:
    80004e4c:	fc010113          	addi	sp,sp,-64
    80004e50:	02113c23          	sd	ra,56(sp)
    80004e54:	02813823          	sd	s0,48(sp)
    80004e58:	02913423          	sd	s1,40(sp)
    80004e5c:	04010413          	addi	s0,sp,64
    80004e60:	fca43423          	sd	a0,-56(s0)
    80004e64:	fc843783          	ld	a5,-56(s0)
    80004e68:	0107b783          	ld	a5,16(a5)
    80004e6c:	10078793          	addi	a5,a5,256
    80004e70:	00078513          	mv	a0,a5
    80004e74:	e80ff0ef          	jal	ra,800044f4 <Xil_In32>
    80004e78:	00050793          	mv	a5,a0
    80004e7c:	fcf42e23          	sw	a5,-36(s0)
    80004e80:	fc843783          	ld	a5,-56(s0)
    80004e84:	0107b783          	ld	a5,16(a5)
    80004e88:	10478793          	addi	a5,a5,260
    80004e8c:	00078513          	mv	a0,a5
    80004e90:	e64ff0ef          	jal	ra,800044f4 <Xil_In32>
    80004e94:	00050793          	mv	a5,a0
    80004e98:	fcf42c23          	sw	a5,-40(s0)
    80004e9c:	fdc42783          	lw	a5,-36(s0)
    80004ea0:	0047f793          	andi	a5,a5,4
    80004ea4:	0007879b          	sext.w	a5,a5
    80004ea8:	0a079c63          	bnez	a5,80004f60 <IsBusBusy+0x114>
    80004eac:	fd842783          	lw	a5,-40(s0)
    80004eb0:	0047f793          	andi	a5,a5,4
    80004eb4:	0007879b          	sext.w	a5,a5
    80004eb8:	0a078463          	beqz	a5,80004f60 <IsBusBusy+0x114>
    80004ebc:	fc843783          	ld	a5,-56(s0)
    80004ec0:	00100713          	li	a4,1
    80004ec4:	04e7a623          	sw	a4,76(a5)
    80004ec8:	fc843783          	ld	a5,-56(s0)
    80004ecc:	0107b783          	ld	a5,16(a5)
    80004ed0:	02078493          	addi	s1,a5,32
    80004ed4:	fc843783          	ld	a5,-56(s0)
    80004ed8:	0107b783          	ld	a5,16(a5)
    80004edc:	02078793          	addi	a5,a5,32
    80004ee0:	00078513          	mv	a0,a5
    80004ee4:	e10ff0ef          	jal	ra,800044f4 <Xil_In32>
    80004ee8:	00050793          	mv	a5,a0
    80004eec:	0007879b          	sext.w	a5,a5
    80004ef0:	0107f793          	andi	a5,a5,16
    80004ef4:	0007879b          	sext.w	a5,a5
    80004ef8:	00078593          	mv	a1,a5
    80004efc:	00048513          	mv	a0,s1
    80004f00:	e20ff0ef          	jal	ra,80004520 <Xil_Out32>
    80004f04:	fc843783          	ld	a5,-56(s0)
    80004f08:	0107b783          	ld	a5,16(a5)
    80004f0c:	02878493          	addi	s1,a5,40
    80004f10:	fc843783          	ld	a5,-56(s0)
    80004f14:	0107b783          	ld	a5,16(a5)
    80004f18:	02878793          	addi	a5,a5,40
    80004f1c:	00078513          	mv	a0,a5
    80004f20:	dd4ff0ef          	jal	ra,800044f4 <Xil_In32>
    80004f24:	00050793          	mv	a5,a0
    80004f28:	0007879b          	sext.w	a5,a5
    80004f2c:	0107e793          	ori	a5,a5,16
    80004f30:	0007879b          	sext.w	a5,a5
    80004f34:	00078593          	mv	a1,a5
    80004f38:	00048513          	mv	a0,s1
    80004f3c:	de4ff0ef          	jal	ra,80004520 <Xil_Out32>
    80004f40:	fc843783          	ld	a5,-56(s0)
    80004f44:	0027c783          	lbu	a5,2(a5)
    80004f48:	0017879b          	addiw	a5,a5,1
    80004f4c:	0ff7f713          	andi	a4,a5,255
    80004f50:	fc843783          	ld	a5,-56(s0)
    80004f54:	00e78123          	sb	a4,2(a5)
    80004f58:	00100793          	li	a5,1
    80004f5c:	0080006f          	j	80004f64 <IsBusBusy+0x118>
    80004f60:	00000793          	li	a5,0
    80004f64:	00078513          	mv	a0,a5
    80004f68:	03813083          	ld	ra,56(sp)
    80004f6c:	03013403          	ld	s0,48(sp)
    80004f70:	02813483          	ld	s1,40(sp)
    80004f74:	04010113          	addi	sp,sp,64
    80004f78:	00008067          	ret

0000000080004f7c <SendSlaveAddr>:
    80004f7c:	fc010113          	addi	sp,sp,-64
    80004f80:	02113c23          	sd	ra,56(sp)
    80004f84:	02813823          	sd	s0,48(sp)
    80004f88:	02913423          	sd	s1,40(sp)
    80004f8c:	04010413          	addi	s0,sp,64
    80004f90:	fca43423          	sd	a0,-56(s0)
    80004f94:	fc843783          	ld	a5,-56(s0)
    80004f98:	0107b783          	ld	a5,16(a5)
    80004f9c:	10078793          	addi	a5,a5,256
    80004fa0:	00078513          	mv	a0,a5
    80004fa4:	d50ff0ef          	jal	ra,800044f4 <Xil_In32>
    80004fa8:	00050793          	mv	a5,a0
    80004fac:	fcf42e23          	sw	a5,-36(s0)
    80004fb0:	fdc42783          	lw	a5,-36(s0)
    80004fb4:	0207e793          	ori	a5,a5,32
    80004fb8:	fcf42e23          	sw	a5,-36(s0)
    80004fbc:	fdc42783          	lw	a5,-36(s0)
    80004fc0:	ff77f793          	andi	a5,a5,-9
    80004fc4:	fcf42e23          	sw	a5,-36(s0)
    80004fc8:	fc843783          	ld	a5,-56(s0)
    80004fcc:	0107b783          	ld	a5,16(a5)
    80004fd0:	10078793          	addi	a5,a5,256
    80004fd4:	fdc42703          	lw	a4,-36(s0)
    80004fd8:	00070593          	mv	a1,a4
    80004fdc:	00078513          	mv	a0,a5
    80004fe0:	d40ff0ef          	jal	ra,80004520 <Xil_Out32>
    80004fe4:	fc843783          	ld	a5,-56(s0)
    80004fe8:	0247a783          	lw	a5,36(a5)
    80004fec:	4077d79b          	sraiw	a5,a5,0x7
    80004ff0:	0007879b          	sext.w	a5,a5
    80004ff4:	fcf40da3          	sb	a5,-37(s0)
    80004ff8:	fdb40783          	lb	a5,-37(s0)
    80004ffc:	0067f793          	andi	a5,a5,6
    80005000:	0187979b          	slliw	a5,a5,0x18
    80005004:	4187d79b          	sraiw	a5,a5,0x18
    80005008:	ff17e793          	ori	a5,a5,-15
    8000500c:	0187979b          	slliw	a5,a5,0x18
    80005010:	4187d79b          	sraiw	a5,a5,0x18
    80005014:	fcf40da3          	sb	a5,-37(s0)
    80005018:	fc843783          	ld	a5,-56(s0)
    8000501c:	0107b783          	ld	a5,16(a5)
    80005020:	10878793          	addi	a5,a5,264
    80005024:	fdb44703          	lbu	a4,-37(s0)
    80005028:	0007071b          	sext.w	a4,a4
    8000502c:	00070593          	mv	a1,a4
    80005030:	00078513          	mv	a0,a5
    80005034:	cecff0ef          	jal	ra,80004520 <Xil_Out32>
    80005038:	fc843783          	ld	a5,-56(s0)
    8000503c:	0107b783          	ld	a5,16(a5)
    80005040:	02078493          	addi	s1,a5,32
    80005044:	fc843783          	ld	a5,-56(s0)
    80005048:	0107b783          	ld	a5,16(a5)
    8000504c:	02078793          	addi	a5,a5,32
    80005050:	00078513          	mv	a0,a5
    80005054:	ca0ff0ef          	jal	ra,800044f4 <Xil_In32>
    80005058:	00050793          	mv	a5,a0
    8000505c:	0007879b          	sext.w	a5,a5
    80005060:	0087f793          	andi	a5,a5,8
    80005064:	0007879b          	sext.w	a5,a5
    80005068:	00078593          	mv	a1,a5
    8000506c:	00048513          	mv	a0,s1
    80005070:	cb0ff0ef          	jal	ra,80004520 <Xil_Out32>
    80005074:	fc843783          	ld	a5,-56(s0)
    80005078:	0107b783          	ld	a5,16(a5)
    8000507c:	02878493          	addi	s1,a5,40
    80005080:	fc843783          	ld	a5,-56(s0)
    80005084:	0107b783          	ld	a5,16(a5)
    80005088:	02878793          	addi	a5,a5,40
    8000508c:	00078513          	mv	a0,a5
    80005090:	c64ff0ef          	jal	ra,800044f4 <Xil_In32>
    80005094:	00050793          	mv	a5,a0
    80005098:	0007879b          	sext.w	a5,a5
    8000509c:	0087e793          	ori	a5,a5,8
    800050a0:	0007879b          	sext.w	a5,a5
    800050a4:	00078593          	mv	a1,a5
    800050a8:	00048513          	mv	a0,s1
    800050ac:	c74ff0ef          	jal	ra,80004520 <Xil_Out32>
    800050b0:	00000013          	nop
    800050b4:	03813083          	ld	ra,56(sp)
    800050b8:	03013403          	ld	s0,48(sp)
    800050bc:	02813483          	ld	s1,40(sp)
    800050c0:	04010113          	addi	sp,sp,64
    800050c4:	00008067          	ret

00000000800050c8 <SendMasterData>:
    800050c8:	fc010113          	addi	sp,sp,-64
    800050cc:	02113c23          	sd	ra,56(sp)
    800050d0:	02813823          	sd	s0,48(sp)
    800050d4:	02913423          	sd	s1,40(sp)
    800050d8:	04010413          	addi	s0,sp,64
    800050dc:	fca43423          	sd	a0,-56(s0)
    800050e0:	fc843783          	ld	a5,-56(s0)
    800050e4:	0407c783          	lbu	a5,64(a5)
    800050e8:	0007879b          	sext.w	a5,a5
    800050ec:	0027f793          	andi	a5,a5,2
    800050f0:	0007879b          	sext.w	a5,a5
    800050f4:	00078c63          	beqz	a5,8000510c <SendMasterData+0x44>
    800050f8:	fc843503          	ld	a0,-56(s0)
    800050fc:	e81ff0ef          	jal	ra,80004f7c <SendSlaveAddr>
    80005100:	fc843783          	ld	a5,-56(s0)
    80005104:	04078023          	sb	zero,64(a5)
    80005108:	2e80006f          	j	800053f0 <SendMasterData+0x328>
    8000510c:	fc843783          	ld	a5,-56(s0)
    80005110:	0447a783          	lw	a5,68(a5)
    80005114:	00078713          	mv	a4,a5
    80005118:	00100793          	li	a5,1
    8000511c:	06e7d263          	bge	a5,a4,80005180 <SendMasterData+0xb8>
    80005120:	00100593          	li	a1,1
    80005124:	fc843503          	ld	a0,-56(s0)
    80005128:	d34fd0ef          	jal	ra,8000265c <XIic_TransmitFifoFill>
    8000512c:	fc843783          	ld	a5,-56(s0)
    80005130:	0447a783          	lw	a5,68(a5)
    80005134:	00078713          	mv	a4,a5
    80005138:	00100793          	li	a5,1
    8000513c:	2ae7ca63          	blt	a5,a4,800053f0 <SendMasterData+0x328>
    80005140:	fc843783          	ld	a5,-56(s0)
    80005144:	0107b783          	ld	a5,16(a5)
    80005148:	02878493          	addi	s1,a5,40
    8000514c:	fc843783          	ld	a5,-56(s0)
    80005150:	0107b783          	ld	a5,16(a5)
    80005154:	02878793          	addi	a5,a5,40
    80005158:	00078513          	mv	a0,a5
    8000515c:	b98ff0ef          	jal	ra,800044f4 <Xil_In32>
    80005160:	00050793          	mv	a5,a0
    80005164:	0007879b          	sext.w	a5,a5
    80005168:	f7f7f793          	andi	a5,a5,-129
    8000516c:	0007879b          	sext.w	a5,a5
    80005170:	00078593          	mv	a1,a5
    80005174:	00048513          	mv	a0,s1
    80005178:	ba8ff0ef          	jal	ra,80004520 <Xil_Out32>
    8000517c:	2740006f          	j	800053f0 <SendMasterData+0x328>
    80005180:	fc843783          	ld	a5,-56(s0)
    80005184:	0447a783          	lw	a5,68(a5)
    80005188:	00078713          	mv	a4,a5
    8000518c:	00100793          	li	a5,1
    80005190:	1af71663          	bne	a4,a5,8000533c <SendMasterData+0x274>
    80005194:	fc843783          	ld	a5,-56(s0)
    80005198:	0287a783          	lw	a5,40(a5)
    8000519c:	0027f793          	andi	a5,a5,2
    800051a0:	0007879b          	sext.w	a5,a5
    800051a4:	06078663          	beqz	a5,80005210 <SendMasterData+0x148>
    800051a8:	fc843783          	ld	a5,-56(s0)
    800051ac:	0107b783          	ld	a5,16(a5)
    800051b0:	10878613          	addi	a2,a5,264
    800051b4:	fc843783          	ld	a5,-56(s0)
    800051b8:	0307b783          	ld	a5,48(a5)
    800051bc:	00178693          	addi	a3,a5,1
    800051c0:	fc843703          	ld	a4,-56(s0)
    800051c4:	02d73823          	sd	a3,48(a4)
    800051c8:	0007c783          	lbu	a5,0(a5)
    800051cc:	0007879b          	sext.w	a5,a5
    800051d0:	00078593          	mv	a1,a5
    800051d4:	00060513          	mv	a0,a2
    800051d8:	b48ff0ef          	jal	ra,80004520 <Xil_Out32>
    800051dc:	fc843783          	ld	a5,-56(s0)
    800051e0:	0447a783          	lw	a5,68(a5)
    800051e4:	fff7879b          	addiw	a5,a5,-1
    800051e8:	0007871b          	sext.w	a4,a5
    800051ec:	fc843783          	ld	a5,-56(s0)
    800051f0:	04e7a223          	sw	a4,68(a5)
    800051f4:	fc843783          	ld	a5,-56(s0)
    800051f8:	0057c783          	lbu	a5,5(a5)
    800051fc:	0017879b          	addiw	a5,a5,1
    80005200:	0ff7f713          	andi	a4,a5,255
    80005204:	fc843783          	ld	a5,-56(s0)
    80005208:	00e782a3          	sb	a4,5(a5)
    8000520c:	1e40006f          	j	800053f0 <SendMasterData+0x328>
    80005210:	fc843783          	ld	a5,-56(s0)
    80005214:	0107b783          	ld	a5,16(a5)
    80005218:	10078793          	addi	a5,a5,256
    8000521c:	00078513          	mv	a0,a5
    80005220:	ad4ff0ef          	jal	ra,800044f4 <Xil_In32>
    80005224:	00050793          	mv	a5,a0
    80005228:	fcf42e23          	sw	a5,-36(s0)
    8000522c:	fdc42783          	lw	a5,-36(s0)
    80005230:	ffb7f793          	andi	a5,a5,-5
    80005234:	fcf42e23          	sw	a5,-36(s0)
    80005238:	fc843783          	ld	a5,-56(s0)
    8000523c:	0107b783          	ld	a5,16(a5)
    80005240:	10078793          	addi	a5,a5,256
    80005244:	fdc42703          	lw	a4,-36(s0)
    80005248:	00070593          	mv	a1,a4
    8000524c:	00078513          	mv	a0,a5
    80005250:	ad0ff0ef          	jal	ra,80004520 <Xil_Out32>
    80005254:	fc843783          	ld	a5,-56(s0)
    80005258:	0107b783          	ld	a5,16(a5)
    8000525c:	10878613          	addi	a2,a5,264
    80005260:	fc843783          	ld	a5,-56(s0)
    80005264:	0307b783          	ld	a5,48(a5)
    80005268:	00178693          	addi	a3,a5,1
    8000526c:	fc843703          	ld	a4,-56(s0)
    80005270:	02d73823          	sd	a3,48(a4)
    80005274:	0007c783          	lbu	a5,0(a5)
    80005278:	0007879b          	sext.w	a5,a5
    8000527c:	00078593          	mv	a1,a5
    80005280:	00060513          	mv	a0,a2
    80005284:	a9cff0ef          	jal	ra,80004520 <Xil_Out32>
    80005288:	fc843783          	ld	a5,-56(s0)
    8000528c:	0447a783          	lw	a5,68(a5)
    80005290:	fff7879b          	addiw	a5,a5,-1
    80005294:	0007871b          	sext.w	a4,a5
    80005298:	fc843783          	ld	a5,-56(s0)
    8000529c:	04e7a223          	sw	a4,68(a5)
    800052a0:	fc843783          	ld	a5,-56(s0)
    800052a4:	0057c783          	lbu	a5,5(a5)
    800052a8:	0017879b          	addiw	a5,a5,1
    800052ac:	0ff7f713          	andi	a4,a5,255
    800052b0:	fc843783          	ld	a5,-56(s0)
    800052b4:	00e782a3          	sb	a4,5(a5)
    800052b8:	fc843783          	ld	a5,-56(s0)
    800052bc:	0407a623          	sw	zero,76(a5)
    800052c0:	fc843783          	ld	a5,-56(s0)
    800052c4:	0107b783          	ld	a5,16(a5)
    800052c8:	02878493          	addi	s1,a5,40
    800052cc:	fc843783          	ld	a5,-56(s0)
    800052d0:	0107b783          	ld	a5,16(a5)
    800052d4:	02878793          	addi	a5,a5,40
    800052d8:	00078513          	mv	a0,a5
    800052dc:	a18ff0ef          	jal	ra,800044f4 <Xil_In32>
    800052e0:	00050793          	mv	a5,a0
    800052e4:	0007879b          	sext.w	a5,a5
    800052e8:	f797f793          	andi	a5,a5,-135
    800052ec:	0007879b          	sext.w	a5,a5
    800052f0:	00078593          	mv	a1,a5
    800052f4:	00048513          	mv	a0,s1
    800052f8:	a28ff0ef          	jal	ra,80004520 <Xil_Out32>
    800052fc:	fc843783          	ld	a5,-56(s0)
    80005300:	0107b783          	ld	a5,16(a5)
    80005304:	02878493          	addi	s1,a5,40
    80005308:	fc843783          	ld	a5,-56(s0)
    8000530c:	0107b783          	ld	a5,16(a5)
    80005310:	02878793          	addi	a5,a5,40
    80005314:	00078513          	mv	a0,a5
    80005318:	9dcff0ef          	jal	ra,800044f4 <Xil_In32>
    8000531c:	00050793          	mv	a5,a0
    80005320:	0007879b          	sext.w	a5,a5
    80005324:	0107e793          	ori	a5,a5,16
    80005328:	0007879b          	sext.w	a5,a5
    8000532c:	00078593          	mv	a1,a5
    80005330:	00048513          	mv	a0,s1
    80005334:	9ecff0ef          	jal	ra,80004520 <Xil_Out32>
    80005338:	0b80006f          	j	800053f0 <SendMasterData+0x328>
    8000533c:	fc843783          	ld	a5,-56(s0)
    80005340:	0287a783          	lw	a5,40(a5)
    80005344:	0027f793          	andi	a5,a5,2
    80005348:	0007879b          	sext.w	a5,a5
    8000534c:	0a078263          	beqz	a5,800053f0 <SendMasterData+0x328>
    80005350:	fc843783          	ld	a5,-56(s0)
    80005354:	0107b783          	ld	a5,16(a5)
    80005358:	10078793          	addi	a5,a5,256
    8000535c:	00078513          	mv	a0,a5
    80005360:	994ff0ef          	jal	ra,800044f4 <Xil_In32>
    80005364:	00050793          	mv	a5,a0
    80005368:	fcf42e23          	sw	a5,-36(s0)
    8000536c:	fdc42783          	lw	a5,-36(s0)
    80005370:	0207e793          	ori	a5,a5,32
    80005374:	fcf42e23          	sw	a5,-36(s0)
    80005378:	fc843783          	ld	a5,-56(s0)
    8000537c:	0107b783          	ld	a5,16(a5)
    80005380:	10078793          	addi	a5,a5,256
    80005384:	fdc42703          	lw	a4,-36(s0)
    80005388:	00070593          	mv	a1,a4
    8000538c:	00078513          	mv	a0,a5
    80005390:	990ff0ef          	jal	ra,80004520 <Xil_Out32>
    80005394:	fc843783          	ld	a5,-56(s0)
    80005398:	0107b783          	ld	a5,16(a5)
    8000539c:	02878493          	addi	s1,a5,40
    800053a0:	fc843783          	ld	a5,-56(s0)
    800053a4:	0107b783          	ld	a5,16(a5)
    800053a8:	02878793          	addi	a5,a5,40
    800053ac:	00078513          	mv	a0,a5
    800053b0:	944ff0ef          	jal	ra,800044f4 <Xil_In32>
    800053b4:	00050793          	mv	a5,a0
    800053b8:	0007879b          	sext.w	a5,a5
    800053bc:	f797f793          	andi	a5,a5,-135
    800053c0:	0007879b          	sext.w	a5,a5
    800053c4:	00078593          	mv	a1,a5
    800053c8:	00048513          	mv	a0,s1
    800053cc:	954ff0ef          	jal	ra,80004520 <Xil_Out32>
    800053d0:	fc843783          	ld	a5,-56(s0)
    800053d4:	0787b703          	ld	a4,120(a5)
    800053d8:	fc843783          	ld	a5,-56(s0)
    800053dc:	0807b783          	ld	a5,128(a5)
    800053e0:	00000593          	li	a1,0
    800053e4:	00078513          	mv	a0,a5
    800053e8:	000700e7          	jalr	a4
    800053ec:	00000013          	nop
    800053f0:	00000013          	nop
    800053f4:	03813083          	ld	ra,56(sp)
    800053f8:	03013403          	ld	s0,48(sp)
    800053fc:	02813483          	ld	s1,40(sp)
    80005400:	04010113          	addi	sp,sp,64
    80005404:	00008067          	ret

0000000080005408 <RecvMasterData>:
    80005408:	fc010113          	addi	sp,sp,-64
    8000540c:	02113c23          	sd	ra,56(sp)
    80005410:	02813823          	sd	s0,48(sp)
    80005414:	02913423          	sd	s1,40(sp)
    80005418:	04010413          	addi	s0,sp,64
    8000541c:	fca43423          	sd	a0,-56(s0)
    80005420:	fc843783          	ld	a5,-56(s0)
    80005424:	0107b783          	ld	a5,16(a5)
    80005428:	10078793          	addi	a5,a5,256
    8000542c:	00078513          	mv	a0,a5
    80005430:	8c4ff0ef          	jal	ra,800044f4 <Xil_In32>
    80005434:	00050793          	mv	a5,a0
    80005438:	fcf42a23          	sw	a5,-44(s0)
    8000543c:	fc843783          	ld	a5,-56(s0)
    80005440:	0107b783          	ld	a5,16(a5)
    80005444:	11878793          	addi	a5,a5,280
    80005448:	00078513          	mv	a0,a5
    8000544c:	8a8ff0ef          	jal	ra,800044f4 <Xil_In32>
    80005450:	00050793          	mv	a5,a0
    80005454:	0007879b          	sext.w	a5,a5
    80005458:	0017879b          	addiw	a5,a5,1
    8000545c:	0007879b          	sext.w	a5,a5
    80005460:	fcf42823          	sw	a5,-48(s0)
    80005464:	fc843783          	ld	a5,-56(s0)
    80005468:	0487a703          	lw	a4,72(a5)
    8000546c:	fd042783          	lw	a5,-48(s0)
    80005470:	40f707bb          	subw	a5,a4,a5
    80005474:	0007879b          	sext.w	a5,a5
    80005478:	00078713          	mv	a4,a5
    8000547c:	00100793          	li	a5,1
    80005480:	10f71863          	bne	a4,a5,80005590 <RecvMasterData+0x188>
    80005484:	fc843783          	ld	a5,-56(s0)
    80005488:	0107b783          	ld	a5,16(a5)
    8000548c:	02878493          	addi	s1,a5,40
    80005490:	fc843783          	ld	a5,-56(s0)
    80005494:	0107b783          	ld	a5,16(a5)
    80005498:	02878793          	addi	a5,a5,40
    8000549c:	00078513          	mv	a0,a5
    800054a0:	854ff0ef          	jal	ra,800044f4 <Xil_In32>
    800054a4:	00050793          	mv	a5,a0
    800054a8:	0007879b          	sext.w	a5,a5
    800054ac:	ffd7f793          	andi	a5,a5,-3
    800054b0:	0007879b          	sext.w	a5,a5
    800054b4:	00078593          	mv	a1,a5
    800054b8:	00048513          	mv	a0,s1
    800054bc:	864ff0ef          	jal	ra,80004520 <Xil_Out32>
    800054c0:	fc843783          	ld	a5,-56(s0)
    800054c4:	0107b783          	ld	a5,16(a5)
    800054c8:	02078493          	addi	s1,a5,32
    800054cc:	fc843783          	ld	a5,-56(s0)
    800054d0:	0107b783          	ld	a5,16(a5)
    800054d4:	02078793          	addi	a5,a5,32
    800054d8:	00078513          	mv	a0,a5
    800054dc:	818ff0ef          	jal	ra,800044f4 <Xil_In32>
    800054e0:	00050793          	mv	a5,a0
    800054e4:	0007879b          	sext.w	a5,a5
    800054e8:	0027f793          	andi	a5,a5,2
    800054ec:	0007879b          	sext.w	a5,a5
    800054f0:	00078593          	mv	a1,a5
    800054f4:	00048513          	mv	a0,s1
    800054f8:	828ff0ef          	jal	ra,80004520 <Xil_Out32>
    800054fc:	fc843783          	ld	a5,-56(s0)
    80005500:	0107b783          	ld	a5,16(a5)
    80005504:	10078713          	addi	a4,a5,256
    80005508:	fd442783          	lw	a5,-44(s0)
    8000550c:	0107e793          	ori	a5,a5,16
    80005510:	0007879b          	sext.w	a5,a5
    80005514:	00078593          	mv	a1,a5
    80005518:	00070513          	mv	a0,a4
    8000551c:	804ff0ef          	jal	ra,80004520 <Xil_Out32>
    80005520:	fc843783          	ld	a5,-56(s0)
    80005524:	0107b783          	ld	a5,16(a5)
    80005528:	10c78793          	addi	a5,a5,268
    8000552c:	00078513          	mv	a0,a5
    80005530:	fc5fe0ef          	jal	ra,800044f4 <Xil_In32>
    80005534:	00050793          	mv	a5,a0
    80005538:	0007861b          	sext.w	a2,a5
    8000553c:	fc843783          	ld	a5,-56(s0)
    80005540:	0387b783          	ld	a5,56(a5)
    80005544:	00178693          	addi	a3,a5,1
    80005548:	fc843703          	ld	a4,-56(s0)
    8000554c:	02d73c23          	sd	a3,56(a4)
    80005550:	00060713          	mv	a4,a2
    80005554:	0ff77713          	andi	a4,a4,255
    80005558:	00e78023          	sb	a4,0(a5)
    8000555c:	fc843783          	ld	a5,-56(s0)
    80005560:	0487a783          	lw	a5,72(a5)
    80005564:	fff7879b          	addiw	a5,a5,-1
    80005568:	0007871b          	sext.w	a4,a5
    8000556c:	fc843783          	ld	a5,-56(s0)
    80005570:	04e7a423          	sw	a4,72(a5)
    80005574:	fc843783          	ld	a5,-56(s0)
    80005578:	0037c783          	lbu	a5,3(a5)
    8000557c:	0017879b          	addiw	a5,a5,1
    80005580:	0ff7f713          	andi	a4,a5,255
    80005584:	fc843783          	ld	a5,-56(s0)
    80005588:	00e781a3          	sb	a4,3(a5)
    8000558c:	2580006f          	j	800057e4 <RecvMasterData+0x3dc>
    80005590:	fc843783          	ld	a5,-56(s0)
    80005594:	0487a703          	lw	a4,72(a5)
    80005598:	fd042783          	lw	a5,-48(s0)
    8000559c:	0007879b          	sext.w	a5,a5
    800055a0:	16e79e63          	bne	a5,a4,8000571c <RecvMasterData+0x314>
    800055a4:	fc843783          	ld	a5,-56(s0)
    800055a8:	0287a783          	lw	a5,40(a5)
    800055ac:	0027f793          	andi	a5,a5,2
    800055b0:	0007879b          	sext.w	a5,a5
    800055b4:	00079a63          	bnez	a5,800055c8 <RecvMasterData+0x1c0>
    800055b8:	fd442783          	lw	a5,-44(s0)
    800055bc:	ffb7f793          	andi	a5,a5,-5
    800055c0:	fcf42a23          	sw	a5,-44(s0)
    800055c4:	0100006f          	j	800055d4 <RecvMasterData+0x1cc>
    800055c8:	fd442783          	lw	a5,-44(s0)
    800055cc:	0207e793          	ori	a5,a5,32
    800055d0:	fcf42a23          	sw	a5,-44(s0)
    800055d4:	fc843783          	ld	a5,-56(s0)
    800055d8:	0107b783          	ld	a5,16(a5)
    800055dc:	10078793          	addi	a5,a5,256
    800055e0:	fd442703          	lw	a4,-44(s0)
    800055e4:	00070593          	mv	a1,a4
    800055e8:	00078513          	mv	a0,a5
    800055ec:	f35fe0ef          	jal	ra,80004520 <Xil_Out32>
    800055f0:	fc040fa3          	sb	zero,-33(s0)
    800055f4:	07c0006f          	j	80005670 <RecvMasterData+0x268>
    800055f8:	fc843783          	ld	a5,-56(s0)
    800055fc:	0107b783          	ld	a5,16(a5)
    80005600:	10c78793          	addi	a5,a5,268
    80005604:	00078513          	mv	a0,a5
    80005608:	eedfe0ef          	jal	ra,800044f4 <Xil_In32>
    8000560c:	00050793          	mv	a5,a0
    80005610:	0007861b          	sext.w	a2,a5
    80005614:	fc843783          	ld	a5,-56(s0)
    80005618:	0387b783          	ld	a5,56(a5)
    8000561c:	00178693          	addi	a3,a5,1
    80005620:	fc843703          	ld	a4,-56(s0)
    80005624:	02d73c23          	sd	a3,56(a4)
    80005628:	00060713          	mv	a4,a2
    8000562c:	0ff77713          	andi	a4,a4,255
    80005630:	00e78023          	sb	a4,0(a5)
    80005634:	fc843783          	ld	a5,-56(s0)
    80005638:	0487a783          	lw	a5,72(a5)
    8000563c:	fff7879b          	addiw	a5,a5,-1
    80005640:	0007871b          	sext.w	a4,a5
    80005644:	fc843783          	ld	a5,-56(s0)
    80005648:	04e7a423          	sw	a4,72(a5)
    8000564c:	fc843783          	ld	a5,-56(s0)
    80005650:	0037c783          	lbu	a5,3(a5)
    80005654:	0017879b          	addiw	a5,a5,1
    80005658:	0ff7f713          	andi	a4,a5,255
    8000565c:	fc843783          	ld	a5,-56(s0)
    80005660:	00e781a3          	sb	a4,3(a5)
    80005664:	fdf44783          	lbu	a5,-33(s0)
    80005668:	0017879b          	addiw	a5,a5,1
    8000566c:	fcf40fa3          	sb	a5,-33(s0)
    80005670:	fdf44783          	lbu	a5,-33(s0)
    80005674:	0007871b          	sext.w	a4,a5
    80005678:	fd042783          	lw	a5,-48(s0)
    8000567c:	0007879b          	sext.w	a5,a5
    80005680:	f6f74ce3          	blt	a4,a5,800055f8 <RecvMasterData+0x1f0>
    80005684:	fc843783          	ld	a5,-56(s0)
    80005688:	0107b783          	ld	a5,16(a5)
    8000568c:	12078793          	addi	a5,a5,288
    80005690:	00000593          	li	a1,0
    80005694:	00078513          	mv	a0,a5
    80005698:	e89fe0ef          	jal	ra,80004520 <Xil_Out32>
    8000569c:	fc843783          	ld	a5,-56(s0)
    800056a0:	0107b783          	ld	a5,16(a5)
    800056a4:	02878493          	addi	s1,a5,40
    800056a8:	fc843783          	ld	a5,-56(s0)
    800056ac:	0107b783          	ld	a5,16(a5)
    800056b0:	02878793          	addi	a5,a5,40
    800056b4:	00078513          	mv	a0,a5
    800056b8:	e3dfe0ef          	jal	ra,800044f4 <Xil_In32>
    800056bc:	00050793          	mv	a5,a0
    800056c0:	0007879b          	sext.w	a5,a5
    800056c4:	ff77f793          	andi	a5,a5,-9
    800056c8:	0007879b          	sext.w	a5,a5
    800056cc:	00078593          	mv	a1,a5
    800056d0:	00048513          	mv	a0,s1
    800056d4:	e4dfe0ef          	jal	ra,80004520 <Xil_Out32>
    800056d8:	fc843783          	ld	a5,-56(s0)
    800056dc:	0107b783          	ld	a5,16(a5)
    800056e0:	10078713          	addi	a4,a5,256
    800056e4:	fd442783          	lw	a5,-44(s0)
    800056e8:	fef7f793          	andi	a5,a5,-17
    800056ec:	0007879b          	sext.w	a5,a5
    800056f0:	00078593          	mv	a1,a5
    800056f4:	00070513          	mv	a0,a4
    800056f8:	e29fe0ef          	jal	ra,80004520 <Xil_Out32>
    800056fc:	fc843783          	ld	a5,-56(s0)
    80005700:	0687b703          	ld	a4,104(a5)
    80005704:	fc843783          	ld	a5,-56(s0)
    80005708:	0707b783          	ld	a5,112(a5)
    8000570c:	00000593          	li	a1,0
    80005710:	00078513          	mv	a0,a5
    80005714:	000700e7          	jalr	a4
    80005718:	0cc0006f          	j	800057e4 <RecvMasterData+0x3dc>
    8000571c:	fc843783          	ld	a5,-56(s0)
    80005720:	0487a703          	lw	a4,72(a5)
    80005724:	fd042783          	lw	a5,-48(s0)
    80005728:	40f707bb          	subw	a5,a4,a5
    8000572c:	0007879b          	sext.w	a5,a5
    80005730:	fff7879b          	addiw	a5,a5,-1
    80005734:	fcf42c23          	sw	a5,-40(s0)
    80005738:	fd842783          	lw	a5,-40(s0)
    8000573c:	0007871b          	sext.w	a4,a5
    80005740:	01000793          	li	a5,16
    80005744:	00e7d663          	bge	a5,a4,80005750 <RecvMasterData+0x348>
    80005748:	01000793          	li	a5,16
    8000574c:	fcf42c23          	sw	a5,-40(s0)
    80005750:	fc040fa3          	sb	zero,-33(s0)
    80005754:	07c0006f          	j	800057d0 <RecvMasterData+0x3c8>
    80005758:	fc843783          	ld	a5,-56(s0)
    8000575c:	0107b783          	ld	a5,16(a5)
    80005760:	10c78793          	addi	a5,a5,268
    80005764:	00078513          	mv	a0,a5
    80005768:	d8dfe0ef          	jal	ra,800044f4 <Xil_In32>
    8000576c:	00050793          	mv	a5,a0
    80005770:	0007861b          	sext.w	a2,a5
    80005774:	fc843783          	ld	a5,-56(s0)
    80005778:	0387b783          	ld	a5,56(a5)
    8000577c:	00178693          	addi	a3,a5,1
    80005780:	fc843703          	ld	a4,-56(s0)
    80005784:	02d73c23          	sd	a3,56(a4)
    80005788:	00060713          	mv	a4,a2
    8000578c:	0ff77713          	andi	a4,a4,255
    80005790:	00e78023          	sb	a4,0(a5)
    80005794:	fc843783          	ld	a5,-56(s0)
    80005798:	0487a783          	lw	a5,72(a5)
    8000579c:	fff7879b          	addiw	a5,a5,-1
    800057a0:	0007871b          	sext.w	a4,a5
    800057a4:	fc843783          	ld	a5,-56(s0)
    800057a8:	04e7a423          	sw	a4,72(a5)
    800057ac:	fc843783          	ld	a5,-56(s0)
    800057b0:	0037c783          	lbu	a5,3(a5)
    800057b4:	0017879b          	addiw	a5,a5,1
    800057b8:	0ff7f713          	andi	a4,a5,255
    800057bc:	fc843783          	ld	a5,-56(s0)
    800057c0:	00e781a3          	sb	a4,3(a5)
    800057c4:	fdf44783          	lbu	a5,-33(s0)
    800057c8:	0017879b          	addiw	a5,a5,1
    800057cc:	fcf40fa3          	sb	a5,-33(s0)
    800057d0:	fdf44783          	lbu	a5,-33(s0)
    800057d4:	0007871b          	sext.w	a4,a5
    800057d8:	fd842783          	lw	a5,-40(s0)
    800057dc:	0007879b          	sext.w	a5,a5
    800057e0:	f6f74ce3          	blt	a4,a5,80005758 <RecvMasterData+0x350>
    800057e4:	00000013          	nop
    800057e8:	03813083          	ld	ra,56(sp)
    800057ec:	03013403          	ld	s0,48(sp)
    800057f0:	02813483          	ld	s1,40(sp)
    800057f4:	04010113          	addi	sp,sp,64
    800057f8:	00008067          	ret

00000000800057fc <Xil_In32>:
    800057fc:	fe010113          	addi	sp,sp,-32
    80005800:	00813c23          	sd	s0,24(sp)
    80005804:	02010413          	addi	s0,sp,32
    80005808:	fea43423          	sd	a0,-24(s0)
    8000580c:	fe843783          	ld	a5,-24(s0)
    80005810:	0007a783          	lw	a5,0(a5)
    80005814:	0007879b          	sext.w	a5,a5
    80005818:	00078513          	mv	a0,a5
    8000581c:	01813403          	ld	s0,24(sp)
    80005820:	02010113          	addi	sp,sp,32
    80005824:	00008067          	ret

0000000080005828 <Xil_Out32>:
    80005828:	fd010113          	addi	sp,sp,-48
    8000582c:	02813423          	sd	s0,40(sp)
    80005830:	03010413          	addi	s0,sp,48
    80005834:	fca43c23          	sd	a0,-40(s0)
    80005838:	00058793          	mv	a5,a1
    8000583c:	fcf42a23          	sw	a5,-44(s0)
    80005840:	fd843783          	ld	a5,-40(s0)
    80005844:	fef43423          	sd	a5,-24(s0)
    80005848:	fe843783          	ld	a5,-24(s0)
    8000584c:	fd442703          	lw	a4,-44(s0)
    80005850:	00e7a023          	sw	a4,0(a5)
    80005854:	00000013          	nop
    80005858:	02813403          	ld	s0,40(sp)
    8000585c:	03010113          	addi	sp,sp,48
    80005860:	00008067          	ret

0000000080005864 <XIic_MultiMasterInclude>:
    80005864:	ff010113          	addi	sp,sp,-16
    80005868:	00813423          	sd	s0,8(sp)
    8000586c:	01010413          	addi	s0,sp,16
    80005870:	00002797          	auipc	a5,0x2
    80005874:	9a878793          	addi	a5,a5,-1624 # 80007218 <XIic_ArbLostFuncPtr>
    80005878:	00000717          	auipc	a4,0x0
    8000587c:	1e870713          	addi	a4,a4,488 # 80005a60 <ArbitrationLostHandler>
    80005880:	00e7b023          	sd	a4,0(a5)
    80005884:	00002797          	auipc	a5,0x2
    80005888:	99c78793          	addi	a5,a5,-1636 # 80007220 <XIic_BusNotBusyFuncPtr>
    8000588c:	00000717          	auipc	a4,0x0
    80005890:	01c70713          	addi	a4,a4,28 # 800058a8 <BusNotBusyHandler>
    80005894:	00e7b023          	sd	a4,0(a5)
    80005898:	00000013          	nop
    8000589c:	00813403          	ld	s0,8(sp)
    800058a0:	01010113          	addi	sp,sp,16
    800058a4:	00008067          	ret

00000000800058a8 <BusNotBusyHandler>:
    800058a8:	fc010113          	addi	sp,sp,-64
    800058ac:	02113c23          	sd	ra,56(sp)
    800058b0:	02813823          	sd	s0,48(sp)
    800058b4:	04010413          	addi	s0,sp,64
    800058b8:	fca43423          	sd	a0,-56(s0)
    800058bc:	fc843783          	ld	a5,-56(s0)
    800058c0:	0107b783          	ld	a5,16(a5)
    800058c4:	10078793          	addi	a5,a5,256
    800058c8:	00078513          	mv	a0,a5
    800058cc:	f31ff0ef          	jal	ra,800057fc <Xil_In32>
    800058d0:	00050793          	mv	a5,a0
    800058d4:	fef42423          	sw	a5,-24(s0)
    800058d8:	fc843783          	ld	a5,-56(s0)
    800058dc:	0107b783          	ld	a5,16(a5)
    800058e0:	10078713          	addi	a4,a5,256
    800058e4:	fe842783          	lw	a5,-24(s0)
    800058e8:	fef7f793          	andi	a5,a5,-17
    800058ec:	0007879b          	sext.w	a5,a5
    800058f0:	00078593          	mv	a1,a5
    800058f4:	00070513          	mv	a0,a4
    800058f8:	f31ff0ef          	jal	ra,80005828 <Xil_Out32>
    800058fc:	fc843783          	ld	a5,-56(s0)
    80005900:	0107b783          	ld	a5,16(a5)
    80005904:	10078793          	addi	a5,a5,256
    80005908:	00078513          	mv	a0,a5
    8000590c:	ef1ff0ef          	jal	ra,800057fc <Xil_In32>
    80005910:	00050793          	mv	a5,a0
    80005914:	fef42223          	sw	a5,-28(s0)
    80005918:	fc843783          	ld	a5,-56(s0)
    8000591c:	0107b783          	ld	a5,16(a5)
    80005920:	10078713          	addi	a4,a5,256
    80005924:	fe442783          	lw	a5,-28(s0)
    80005928:	0027e793          	ori	a5,a5,2
    8000592c:	0007879b          	sext.w	a5,a5
    80005930:	00078593          	mv	a1,a5
    80005934:	00070513          	mv	a0,a4
    80005938:	ef1ff0ef          	jal	ra,80005828 <Xil_Out32>
    8000593c:	fc843783          	ld	a5,-56(s0)
    80005940:	0107b783          	ld	a5,16(a5)
    80005944:	10078793          	addi	a5,a5,256
    80005948:	fe442703          	lw	a4,-28(s0)
    8000594c:	00070593          	mv	a1,a4
    80005950:	00078513          	mv	a0,a5
    80005954:	ed5ff0ef          	jal	ra,80005828 <Xil_Out32>
    80005958:	fc843783          	ld	a5,-56(s0)
    8000595c:	0107b783          	ld	a5,16(a5)
    80005960:	11878793          	addi	a5,a5,280
    80005964:	00078513          	mv	a0,a5
    80005968:	e95ff0ef          	jal	ra,800057fc <Xil_In32>
    8000596c:	00050793          	mv	a5,a0
    80005970:	0007879b          	sext.w	a5,a5
    80005974:	0ff7f793          	andi	a5,a5,255
    80005978:	0017879b          	addiw	a5,a5,1
    8000597c:	fef401a3          	sb	a5,-29(s0)
    80005980:	fe042623          	sw	zero,-20(s0)
    80005984:	0240006f          	j	800059a8 <BusNotBusyHandler+0x100>
    80005988:	fc843783          	ld	a5,-56(s0)
    8000598c:	0107b783          	ld	a5,16(a5)
    80005990:	10c78793          	addi	a5,a5,268
    80005994:	00078513          	mv	a0,a5
    80005998:	e65ff0ef          	jal	ra,800057fc <Xil_In32>
    8000599c:	fec42783          	lw	a5,-20(s0)
    800059a0:	0017879b          	addiw	a5,a5,1
    800059a4:	fef42623          	sw	a5,-20(s0)
    800059a8:	fe344783          	lbu	a5,-29(s0)
    800059ac:	0007871b          	sext.w	a4,a5
    800059b0:	fec42783          	lw	a5,-20(s0)
    800059b4:	0007879b          	sext.w	a5,a5
    800059b8:	fce7c8e3          	blt	a5,a4,80005988 <BusNotBusyHandler+0xe0>
    800059bc:	fc843783          	ld	a5,-56(s0)
    800059c0:	0107b783          	ld	a5,16(a5)
    800059c4:	02878793          	addi	a5,a5,40
    800059c8:	00078513          	mv	a0,a5
    800059cc:	e31ff0ef          	jal	ra,800057fc <Xil_In32>
    800059d0:	00050793          	mv	a5,a0
    800059d4:	fcf42e23          	sw	a5,-36(s0)
    800059d8:	fc843783          	ld	a5,-56(s0)
    800059dc:	0387b783          	ld	a5,56(a5)
    800059e0:	02079663          	bnez	a5,80005a0c <BusNotBusyHandler+0x164>
    800059e4:	fc843783          	ld	a5,-56(s0)
    800059e8:	0107b783          	ld	a5,16(a5)
    800059ec:	02878713          	addi	a4,a5,40
    800059f0:	fdc42783          	lw	a5,-36(s0)
    800059f4:	f797f793          	andi	a5,a5,-135
    800059f8:	0007879b          	sext.w	a5,a5
    800059fc:	00078593          	mv	a1,a5
    80005a00:	00070513          	mv	a0,a4
    80005a04:	e25ff0ef          	jal	ra,80005828 <Xil_Out32>
    80005a08:	0280006f          	j	80005a30 <BusNotBusyHandler+0x188>
    80005a0c:	fc843783          	ld	a5,-56(s0)
    80005a10:	0107b783          	ld	a5,16(a5)
    80005a14:	02878713          	addi	a4,a5,40
    80005a18:	fdc42783          	lw	a5,-36(s0)
    80005a1c:	ff77f793          	andi	a5,a5,-9
    80005a20:	0007879b          	sext.w	a5,a5
    80005a24:	00078593          	mv	a1,a5
    80005a28:	00070513          	mv	a0,a4
    80005a2c:	dfdff0ef          	jal	ra,80005828 <Xil_Out32>
    80005a30:	fc843783          	ld	a5,-56(s0)
    80005a34:	0587b703          	ld	a4,88(a5)
    80005a38:	fc843783          	ld	a5,-56(s0)
    80005a3c:	0607b783          	ld	a5,96(a5)
    80005a40:	00100593          	li	a1,1
    80005a44:	00078513          	mv	a0,a5
    80005a48:	000700e7          	jalr	a4
    80005a4c:	00000013          	nop
    80005a50:	03813083          	ld	ra,56(sp)
    80005a54:	03013403          	ld	s0,48(sp)
    80005a58:	04010113          	addi	sp,sp,64
    80005a5c:	00008067          	ret

0000000080005a60 <ArbitrationLostHandler>:
    80005a60:	fc010113          	addi	sp,sp,-64
    80005a64:	02113c23          	sd	ra,56(sp)
    80005a68:	02813823          	sd	s0,48(sp)
    80005a6c:	02913423          	sd	s1,40(sp)
    80005a70:	04010413          	addi	s0,sp,64
    80005a74:	fca43423          	sd	a0,-56(s0)
    80005a78:	fc843783          	ld	a5,-56(s0)
    80005a7c:	0107b783          	ld	a5,16(a5)
    80005a80:	02878493          	addi	s1,a5,40
    80005a84:	fc843783          	ld	a5,-56(s0)
    80005a88:	0107b783          	ld	a5,16(a5)
    80005a8c:	02878793          	addi	a5,a5,40
    80005a90:	00078513          	mv	a0,a5
    80005a94:	d69ff0ef          	jal	ra,800057fc <Xil_In32>
    80005a98:	00050793          	mv	a5,a0
    80005a9c:	0007879b          	sext.w	a5,a5
    80005aa0:	f797f793          	andi	a5,a5,-135
    80005aa4:	0007879b          	sext.w	a5,a5
    80005aa8:	00078593          	mv	a1,a5
    80005aac:	00048513          	mv	a0,s1
    80005ab0:	d79ff0ef          	jal	ra,80005828 <Xil_Out32>
    80005ab4:	fc843783          	ld	a5,-56(s0)
    80005ab8:	0107b783          	ld	a5,16(a5)
    80005abc:	02078493          	addi	s1,a5,32
    80005ac0:	fc843783          	ld	a5,-56(s0)
    80005ac4:	0107b783          	ld	a5,16(a5)
    80005ac8:	02078793          	addi	a5,a5,32
    80005acc:	00078513          	mv	a0,a5
    80005ad0:	d2dff0ef          	jal	ra,800057fc <Xil_In32>
    80005ad4:	00050793          	mv	a5,a0
    80005ad8:	0007879b          	sext.w	a5,a5
    80005adc:	0867f793          	andi	a5,a5,134
    80005ae0:	0007879b          	sext.w	a5,a5
    80005ae4:	00078593          	mv	a1,a5
    80005ae8:	00048513          	mv	a0,s1
    80005aec:	d3dff0ef          	jal	ra,80005828 <Xil_Out32>
    80005af0:	fc843783          	ld	a5,-56(s0)
    80005af4:	0107b783          	ld	a5,16(a5)
    80005af8:	10078793          	addi	a5,a5,256
    80005afc:	00078513          	mv	a0,a5
    80005b00:	cfdff0ef          	jal	ra,800057fc <Xil_In32>
    80005b04:	00050793          	mv	a5,a0
    80005b08:	fcf42e23          	sw	a5,-36(s0)
    80005b0c:	fc843783          	ld	a5,-56(s0)
    80005b10:	0107b783          	ld	a5,16(a5)
    80005b14:	10078713          	addi	a4,a5,256
    80005b18:	fdc42783          	lw	a5,-36(s0)
    80005b1c:	0027e793          	ori	a5,a5,2
    80005b20:	0007879b          	sext.w	a5,a5
    80005b24:	00078593          	mv	a1,a5
    80005b28:	00070513          	mv	a0,a4
    80005b2c:	cfdff0ef          	jal	ra,80005828 <Xil_Out32>
    80005b30:	fc843783          	ld	a5,-56(s0)
    80005b34:	0107b783          	ld	a5,16(a5)
    80005b38:	10078793          	addi	a5,a5,256
    80005b3c:	fdc42703          	lw	a4,-36(s0)
    80005b40:	00070593          	mv	a1,a4
    80005b44:	00078513          	mv	a0,a5
    80005b48:	ce1ff0ef          	jal	ra,80005828 <Xil_Out32>
    80005b4c:	fc843783          	ld	a5,-56(s0)
    80005b50:	0587b703          	ld	a4,88(a5)
    80005b54:	fc843783          	ld	a5,-56(s0)
    80005b58:	0607b783          	ld	a5,96(a5)
    80005b5c:	00200593          	li	a1,2
    80005b60:	00078513          	mv	a0,a5
    80005b64:	000700e7          	jalr	a4
    80005b68:	00000013          	nop
    80005b6c:	03813083          	ld	ra,56(sp)
    80005b70:	03013403          	ld	s0,48(sp)
    80005b74:	02813483          	ld	s1,40(sp)
    80005b78:	04010113          	addi	sp,sp,64
    80005b7c:	00008067          	ret

0000000080005b80 <Xil_In32>:
    80005b80:	fe010113          	addi	sp,sp,-32
    80005b84:	00813c23          	sd	s0,24(sp)
    80005b88:	02010413          	addi	s0,sp,32
    80005b8c:	fea43423          	sd	a0,-24(s0)
    80005b90:	fe843783          	ld	a5,-24(s0)
    80005b94:	0007a783          	lw	a5,0(a5)
    80005b98:	0007879b          	sext.w	a5,a5
    80005b9c:	00078513          	mv	a0,a5
    80005ba0:	01813403          	ld	s0,24(sp)
    80005ba4:	02010113          	addi	sp,sp,32
    80005ba8:	00008067          	ret

0000000080005bac <Xil_Out32>:
    80005bac:	fd010113          	addi	sp,sp,-48
    80005bb0:	02813423          	sd	s0,40(sp)
    80005bb4:	03010413          	addi	s0,sp,48
    80005bb8:	fca43c23          	sd	a0,-40(s0)
    80005bbc:	00058793          	mv	a5,a1
    80005bc0:	fcf42a23          	sw	a5,-44(s0)
    80005bc4:	fd843783          	ld	a5,-40(s0)
    80005bc8:	fef43423          	sd	a5,-24(s0)
    80005bcc:	fe843783          	ld	a5,-24(s0)
    80005bd0:	fd442703          	lw	a4,-44(s0)
    80005bd4:	00e7a023          	sw	a4,0(a5)
    80005bd8:	00000013          	nop
    80005bdc:	02813403          	ld	s0,40(sp)
    80005be0:	03010113          	addi	sp,sp,48
    80005be4:	00008067          	ret

0000000080005be8 <XIic_SetOptions>:
    80005be8:	fd010113          	addi	sp,sp,-48
    80005bec:	02113423          	sd	ra,40(sp)
    80005bf0:	02813023          	sd	s0,32(sp)
    80005bf4:	03010413          	addi	s0,sp,48
    80005bf8:	fca43c23          	sd	a0,-40(s0)
    80005bfc:	00058793          	mv	a5,a1
    80005c00:	fcf42a23          	sw	a5,-44(s0)
    80005c04:	fd843783          	ld	a5,-40(s0)
    80005c08:	06078263          	beqz	a5,80005c6c <XIic_SetOptions+0x84>
    80005c0c:	00001797          	auipc	a5,0x1
    80005c10:	63078793          	addi	a5,a5,1584 # 8000723c <Xil_AssertStatus>
    80005c14:	0007a023          	sw	zero,0(a5)
    80005c18:	fd843783          	ld	a5,-40(s0)
    80005c1c:	0107b783          	ld	a5,16(a5)
    80005c20:	01c78793          	addi	a5,a5,28
    80005c24:	00000593          	li	a1,0
    80005c28:	00078513          	mv	a0,a5
    80005c2c:	f81ff0ef          	jal	ra,80005bac <Xil_Out32>
    80005c30:	fd843783          	ld	a5,-40(s0)
    80005c34:	fd442703          	lw	a4,-44(s0)
    80005c38:	02e7a423          	sw	a4,40(a5)
    80005c3c:	fd843783          	ld	a5,-40(s0)
    80005c40:	0107b783          	ld	a5,16(a5)
    80005c44:	10078793          	addi	a5,a5,256
    80005c48:	00078513          	mv	a0,a5
    80005c4c:	f35ff0ef          	jal	ra,80005b80 <Xil_In32>
    80005c50:	00050793          	mv	a5,a0
    80005c54:	fef42623          	sw	a5,-20(s0)
    80005c58:	fd442783          	lw	a5,-44(s0)
    80005c5c:	0017f793          	andi	a5,a5,1
    80005c60:	0007879b          	sext.w	a5,a5
    80005c64:	02078e63          	beqz	a5,80005ca0 <XIic_SetOptions+0xb8>
    80005c68:	0280006f          	j	80005c90 <XIic_SetOptions+0xa8>
    80005c6c:	06200593          	li	a1,98
    80005c70:	00001517          	auipc	a0,0x1
    80005c74:	50050513          	addi	a0,a0,1280 # 80007170 <Xil_AssertSetCallback+0x13c>
    80005c78:	34c010ef          	jal	ra,80006fc4 <Xil_Assert>
    80005c7c:	00001797          	auipc	a5,0x1
    80005c80:	5c078793          	addi	a5,a5,1472 # 8000723c <Xil_AssertStatus>
    80005c84:	00100713          	li	a4,1
    80005c88:	00e7a023          	sw	a4,0(a5)
    80005c8c:	0540006f          	j	80005ce0 <XIic_SetOptions+0xf8>
    80005c90:	fec42783          	lw	a5,-20(s0)
    80005c94:	0407e793          	ori	a5,a5,64
    80005c98:	fef42623          	sw	a5,-20(s0)
    80005c9c:	0100006f          	j	80005cac <XIic_SetOptions+0xc4>
    80005ca0:	fec42783          	lw	a5,-20(s0)
    80005ca4:	fbf7f793          	andi	a5,a5,-65
    80005ca8:	fef42623          	sw	a5,-20(s0)
    80005cac:	fd843783          	ld	a5,-40(s0)
    80005cb0:	0107b783          	ld	a5,16(a5)
    80005cb4:	10078793          	addi	a5,a5,256
    80005cb8:	fec42703          	lw	a4,-20(s0)
    80005cbc:	00070593          	mv	a1,a4
    80005cc0:	00078513          	mv	a0,a5
    80005cc4:	ee9ff0ef          	jal	ra,80005bac <Xil_Out32>
    80005cc8:	fd843783          	ld	a5,-40(s0)
    80005ccc:	0107b783          	ld	a5,16(a5)
    80005cd0:	01c78793          	addi	a5,a5,28
    80005cd4:	800005b7          	lui	a1,0x80000
    80005cd8:	00078513          	mv	a0,a5
    80005cdc:	ed1ff0ef          	jal	ra,80005bac <Xil_Out32>
    80005ce0:	02813083          	ld	ra,40(sp)
    80005ce4:	02013403          	ld	s0,32(sp)
    80005ce8:	03010113          	addi	sp,sp,48
    80005cec:	00008067          	ret

0000000080005cf0 <XIic_GetOptions>:
    80005cf0:	fe010113          	addi	sp,sp,-32
    80005cf4:	00113c23          	sd	ra,24(sp)
    80005cf8:	00813823          	sd	s0,16(sp)
    80005cfc:	02010413          	addi	s0,sp,32
    80005d00:	fea43423          	sd	a0,-24(s0)
    80005d04:	fe843783          	ld	a5,-24(s0)
    80005d08:	00078e63          	beqz	a5,80005d24 <XIic_GetOptions+0x34>
    80005d0c:	00001797          	auipc	a5,0x1
    80005d10:	53078793          	addi	a5,a5,1328 # 8000723c <Xil_AssertStatus>
    80005d14:	0007a023          	sw	zero,0(a5)
    80005d18:	fe843783          	ld	a5,-24(s0)
    80005d1c:	0287a783          	lw	a5,40(a5)
    80005d20:	0280006f          	j	80005d48 <XIic_GetOptions+0x58>
    80005d24:	09200593          	li	a1,146
    80005d28:	00001517          	auipc	a0,0x1
    80005d2c:	44850513          	addi	a0,a0,1096 # 80007170 <Xil_AssertSetCallback+0x13c>
    80005d30:	294010ef          	jal	ra,80006fc4 <Xil_Assert>
    80005d34:	00001797          	auipc	a5,0x1
    80005d38:	50878793          	addi	a5,a5,1288 # 8000723c <Xil_AssertStatus>
    80005d3c:	00100713          	li	a4,1
    80005d40:	00e7a023          	sw	a4,0(a5)
    80005d44:	00000793          	li	a5,0
    80005d48:	00078513          	mv	a0,a5
    80005d4c:	01813083          	ld	ra,24(sp)
    80005d50:	01013403          	ld	s0,16(sp)
    80005d54:	02010113          	addi	sp,sp,32
    80005d58:	00008067          	ret

0000000080005d5c <Xil_In32>:
    80005d5c:	fe010113          	addi	sp,sp,-32
    80005d60:	00813c23          	sd	s0,24(sp)
    80005d64:	02010413          	addi	s0,sp,32
    80005d68:	fea43423          	sd	a0,-24(s0)
    80005d6c:	fe843783          	ld	a5,-24(s0)
    80005d70:	0007a783          	lw	a5,0(a5)
    80005d74:	0007879b          	sext.w	a5,a5
    80005d78:	00078513          	mv	a0,a5
    80005d7c:	01813403          	ld	s0,24(sp)
    80005d80:	02010113          	addi	sp,sp,32
    80005d84:	00008067          	ret

0000000080005d88 <Xil_Out32>:
    80005d88:	fd010113          	addi	sp,sp,-48
    80005d8c:	02813423          	sd	s0,40(sp)
    80005d90:	03010413          	addi	s0,sp,48
    80005d94:	fca43c23          	sd	a0,-40(s0)
    80005d98:	00058793          	mv	a5,a1
    80005d9c:	fcf42a23          	sw	a5,-44(s0)
    80005da0:	fd843783          	ld	a5,-40(s0)
    80005da4:	fef43423          	sd	a5,-24(s0)
    80005da8:	fe843783          	ld	a5,-24(s0)
    80005dac:	fd442703          	lw	a4,-44(s0)
    80005db0:	00e7a023          	sw	a4,0(a5)
    80005db4:	00000013          	nop
    80005db8:	02813403          	ld	s0,40(sp)
    80005dbc:	03010113          	addi	sp,sp,48
    80005dc0:	00008067          	ret

0000000080005dc4 <XIic_SelfTest>:
    80005dc4:	fd010113          	addi	sp,sp,-48
    80005dc8:	02113423          	sd	ra,40(sp)
    80005dcc:	02813023          	sd	s0,32(sp)
    80005dd0:	03010413          	addi	s0,sp,48
    80005dd4:	fca43c23          	sd	a0,-40(s0)
    80005dd8:	fe042623          	sw	zero,-20(s0)
    80005ddc:	fd843783          	ld	a5,-40(s0)
    80005de0:	02078663          	beqz	a5,80005e0c <XIic_SelfTest+0x48>
    80005de4:	00001797          	auipc	a5,0x1
    80005de8:	45878793          	addi	a5,a5,1112 # 8000723c <Xil_AssertStatus>
    80005dec:	0007a023          	sw	zero,0(a5)
    80005df0:	fd843783          	ld	a5,-40(s0)
    80005df4:	01c7a783          	lw	a5,28(a5)
    80005df8:	00078713          	mv	a4,a5
    80005dfc:	111117b7          	lui	a5,0x11111
    80005e00:	11178793          	addi	a5,a5,273 # 11111111 <_start-0x6eeeeef7>
    80005e04:	0cf71063          	bne	a4,a5,80005ec4 <XIic_SelfTest+0x100>
    80005e08:	02c0006f          	j	80005e34 <XIic_SelfTest+0x70>
    80005e0c:	05700593          	li	a1,87
    80005e10:	00001517          	auipc	a0,0x1
    80005e14:	37050513          	addi	a0,a0,880 # 80007180 <Xil_AssertSetCallback+0x14c>
    80005e18:	1ac010ef          	jal	ra,80006fc4 <Xil_Assert>
    80005e1c:	00001797          	auipc	a5,0x1
    80005e20:	42078793          	addi	a5,a5,1056 # 8000723c <Xil_AssertStatus>
    80005e24:	00100713          	li	a4,1
    80005e28:	00e7a023          	sw	a4,0(a5)
    80005e2c:	00000793          	li	a5,0
    80005e30:	1840006f          	j	80005fb4 <XIic_SelfTest+0x1f0>
    80005e34:	00001797          	auipc	a5,0x1
    80005e38:	40878793          	addi	a5,a5,1032 # 8000723c <Xil_AssertStatus>
    80005e3c:	0007a023          	sw	zero,0(a5)
    80005e40:	fd843783          	ld	a5,-40(s0)
    80005e44:	0107b783          	ld	a5,16(a5)
    80005e48:	01c78793          	addi	a5,a5,28
    80005e4c:	00078513          	mv	a0,a5
    80005e50:	f0dff0ef          	jal	ra,80005d5c <Xil_In32>
    80005e54:	00050793          	mv	a5,a0
    80005e58:	0007879b          	sext.w	a5,a5
    80005e5c:	00078713          	mv	a4,a5
    80005e60:	800007b7          	lui	a5,0x80000
    80005e64:	40f707b3          	sub	a5,a4,a5
    80005e68:	0017b793          	seqz	a5,a5
    80005e6c:	0ff7f793          	andi	a5,a5,255
    80005e70:	fef42423          	sw	a5,-24(s0)
    80005e74:	fd843783          	ld	a5,-40(s0)
    80005e78:	0107b783          	ld	a5,16(a5) # ffffffff80000010 <Xil_AssertCallbackRoutine+0xfffffffeffff8d68>
    80005e7c:	02878793          	addi	a5,a5,40
    80005e80:	00078513          	mv	a0,a5
    80005e84:	ed9ff0ef          	jal	ra,80005d5c <Xil_In32>
    80005e88:	00050793          	mv	a5,a0
    80005e8c:	fef42223          	sw	a5,-28(s0)
    80005e90:	fd843503          	ld	a0,-40(s0)
    80005e94:	b0dfa0ef          	jal	ra,800009a0 <XIic_Reset>
    80005e98:	fd843783          	ld	a5,-40(s0)
    80005e9c:	0107b783          	ld	a5,16(a5)
    80005ea0:	01c78793          	addi	a5,a5,28
    80005ea4:	00078513          	mv	a0,a5
    80005ea8:	eb5ff0ef          	jal	ra,80005d5c <Xil_In32>
    80005eac:	00050793          	mv	a5,a0
    80005eb0:	0007879b          	sext.w	a5,a5
    80005eb4:	00078713          	mv	a4,a5
    80005eb8:	800007b7          	lui	a5,0x80000
    80005ebc:	02f71c63          	bne	a4,a5,80005ef4 <XIic_SelfTest+0x130>
    80005ec0:	02c0006f          	j	80005eec <XIic_SelfTest+0x128>
    80005ec4:	05800593          	li	a1,88
    80005ec8:	00001517          	auipc	a0,0x1
    80005ecc:	2b850513          	addi	a0,a0,696 # 80007180 <Xil_AssertSetCallback+0x14c>
    80005ed0:	0f4010ef          	jal	ra,80006fc4 <Xil_Assert>
    80005ed4:	00001797          	auipc	a5,0x1
    80005ed8:	36878793          	addi	a5,a5,872 # 8000723c <Xil_AssertStatus>
    80005edc:	00100713          	li	a4,1
    80005ee0:	00e7a023          	sw	a4,0(a5)
    80005ee4:	00000793          	li	a5,0
    80005ee8:	0cc0006f          	j	80005fb4 <XIic_SelfTest+0x1f0>
    80005eec:	00100793          	li	a5,1
    80005ef0:	fef42623          	sw	a5,-20(s0)
    80005ef4:	fd843783          	ld	a5,-40(s0)
    80005ef8:	0107b783          	ld	a5,16(a5)
    80005efc:	02878793          	addi	a5,a5,40
    80005f00:	00078513          	mv	a0,a5
    80005f04:	e59ff0ef          	jal	ra,80005d5c <Xil_In32>
    80005f08:	00050793          	mv	a5,a0
    80005f0c:	0007879b          	sext.w	a5,a5
    80005f10:	00078663          	beqz	a5,80005f1c <XIic_SelfTest+0x158>
    80005f14:	00100793          	li	a5,1
    80005f18:	fef42623          	sw	a5,-20(s0)
    80005f1c:	fd843783          	ld	a5,-40(s0)
    80005f20:	0107b783          	ld	a5,16(a5)
    80005f24:	02878793          	addi	a5,a5,40
    80005f28:	08e00593          	li	a1,142
    80005f2c:	00078513          	mv	a0,a5
    80005f30:	e59ff0ef          	jal	ra,80005d88 <Xil_Out32>
    80005f34:	fd843783          	ld	a5,-40(s0)
    80005f38:	0107b783          	ld	a5,16(a5)
    80005f3c:	02878793          	addi	a5,a5,40
    80005f40:	00078513          	mv	a0,a5
    80005f44:	e19ff0ef          	jal	ra,80005d5c <Xil_In32>
    80005f48:	00050793          	mv	a5,a0
    80005f4c:	0007879b          	sext.w	a5,a5
    80005f50:	00078713          	mv	a4,a5
    80005f54:	08e00793          	li	a5,142
    80005f58:	00f70663          	beq	a4,a5,80005f64 <XIic_SelfTest+0x1a0>
    80005f5c:	00100793          	li	a5,1
    80005f60:	fef42623          	sw	a5,-20(s0)
    80005f64:	fd843503          	ld	a0,-40(s0)
    80005f68:	a39fa0ef          	jal	ra,800009a0 <XIic_Reset>
    80005f6c:	fe842783          	lw	a5,-24(s0)
    80005f70:	0007871b          	sext.w	a4,a5
    80005f74:	00100793          	li	a5,1
    80005f78:	00f71e63          	bne	a4,a5,80005f94 <XIic_SelfTest+0x1d0>
    80005f7c:	fd843783          	ld	a5,-40(s0)
    80005f80:	0107b783          	ld	a5,16(a5)
    80005f84:	01c78793          	addi	a5,a5,28
    80005f88:	800005b7          	lui	a1,0x80000
    80005f8c:	00078513          	mv	a0,a5
    80005f90:	df9ff0ef          	jal	ra,80005d88 <Xil_Out32>
    80005f94:	fd843783          	ld	a5,-40(s0)
    80005f98:	0107b783          	ld	a5,16(a5)
    80005f9c:	02878793          	addi	a5,a5,40
    80005fa0:	fe442703          	lw	a4,-28(s0)
    80005fa4:	00070593          	mv	a1,a4
    80005fa8:	00078513          	mv	a0,a5
    80005fac:	dddff0ef          	jal	ra,80005d88 <Xil_Out32>
    80005fb0:	fec42783          	lw	a5,-20(s0)
    80005fb4:	00078513          	mv	a0,a5
    80005fb8:	02813083          	ld	ra,40(sp)
    80005fbc:	02013403          	ld	s0,32(sp)
    80005fc0:	03010113          	addi	sp,sp,48
    80005fc4:	00008067          	ret

0000000080005fc8 <XIic_LookupConfig>:
    80005fc8:	fd010113          	addi	sp,sp,-48
    80005fcc:	02813423          	sd	s0,40(sp)
    80005fd0:	03010413          	addi	s0,sp,48
    80005fd4:	00050793          	mv	a5,a0
    80005fd8:	fcf41f23          	sh	a5,-34(s0)
    80005fdc:	fe043423          	sd	zero,-24(s0)
    80005fe0:	fe043023          	sd	zero,-32(s0)
    80005fe4:	06c0006f          	j	80006050 <XIic_LookupConfig+0x88>
    80005fe8:	00001697          	auipc	a3,0x1
    80005fec:	1c868693          	addi	a3,a3,456 # 800071b0 <XIic_ConfigTable>
    80005ff0:	fe043703          	ld	a4,-32(s0)
    80005ff4:	00070793          	mv	a5,a4
    80005ff8:	00179793          	slli	a5,a5,0x1
    80005ffc:	00e787b3          	add	a5,a5,a4
    80006000:	00379793          	slli	a5,a5,0x3
    80006004:	00f687b3          	add	a5,a3,a5
    80006008:	0007d783          	lhu	a5,0(a5)
    8000600c:	fde45703          	lhu	a4,-34(s0)
    80006010:	0007071b          	sext.w	a4,a4
    80006014:	0007879b          	sext.w	a5,a5
    80006018:	02f71663          	bne	a4,a5,80006044 <XIic_LookupConfig+0x7c>
    8000601c:	fe043703          	ld	a4,-32(s0)
    80006020:	00070793          	mv	a5,a4
    80006024:	00179793          	slli	a5,a5,0x1
    80006028:	00e787b3          	add	a5,a5,a4
    8000602c:	00379793          	slli	a5,a5,0x3
    80006030:	00001717          	auipc	a4,0x1
    80006034:	18070713          	addi	a4,a4,384 # 800071b0 <XIic_ConfigTable>
    80006038:	00e787b3          	add	a5,a5,a4
    8000603c:	fef43423          	sd	a5,-24(s0)
    80006040:	01c0006f          	j	8000605c <XIic_LookupConfig+0x94>
    80006044:	fe043783          	ld	a5,-32(s0)
    80006048:	00178793          	addi	a5,a5,1
    8000604c:	fef43023          	sd	a5,-32(s0)
    80006050:	fe043703          	ld	a4,-32(s0)
    80006054:	00100793          	li	a5,1
    80006058:	f8e7f8e3          	bgeu	a5,a4,80005fe8 <XIic_LookupConfig+0x20>
    8000605c:	fe843783          	ld	a5,-24(s0)
    80006060:	00078513          	mv	a0,a5
    80006064:	02813403          	ld	s0,40(sp)
    80006068:	03010113          	addi	sp,sp,48
    8000606c:	00008067          	ret

0000000080006070 <XIic_Initialize>:
    80006070:	fd010113          	addi	sp,sp,-48
    80006074:	02113423          	sd	ra,40(sp)
    80006078:	02813023          	sd	s0,32(sp)
    8000607c:	03010413          	addi	s0,sp,48
    80006080:	fca43c23          	sd	a0,-40(s0)
    80006084:	00058793          	mv	a5,a1
    80006088:	fcf41b23          	sh	a5,-42(s0)
    8000608c:	fd843783          	ld	a5,-40(s0)
    80006090:	02078663          	beqz	a5,800060bc <XIic_Initialize+0x4c>
    80006094:	00001797          	auipc	a5,0x1
    80006098:	1a878793          	addi	a5,a5,424 # 8000723c <Xil_AssertStatus>
    8000609c:	0007b023          	sd	zero,0(a5)
    800060a0:	fd645783          	lhu	a5,-42(s0)
    800060a4:	00078513          	mv	a0,a5
    800060a8:	f21ff0ef          	jal	ra,80005fc8 <XIic_LookupConfig>
    800060ac:	fea43423          	sd	a0,-24(s0)
    800060b0:	fe843783          	ld	a5,-24(s0)
    800060b4:	02079c63          	bnez	a5,800060ec <XIic_Initialize+0x7c>
    800060b8:	02c0006f          	j	800060e4 <XIic_Initialize+0x74>
    800060bc:	07e00593          	li	a1,126
    800060c0:	00001517          	auipc	a0,0x1
    800060c4:	0d050513          	addi	a0,a0,208 # 80007190 <Xil_AssertSetCallback+0x15c>
    800060c8:	6fd000ef          	jal	ra,80006fc4 <Xil_Assert>
    800060cc:	00001797          	auipc	a5,0x1
    800060d0:	17078793          	addi	a5,a5,368 # 8000723c <Xil_AssertStatus>
    800060d4:	00100713          	li	a4,1
    800060d8:	00e7b023          	sd	a4,0(a5)
    800060dc:	00000793          	li	a5,0
    800060e0:	0280006f          	j	80006108 <XIic_Initialize+0x98>
    800060e4:	00200793          	li	a5,2
    800060e8:	0200006f          	j	80006108 <XIic_Initialize+0x98>
    800060ec:	fe843783          	ld	a5,-24(s0)
    800060f0:	0087b783          	ld	a5,8(a5)
    800060f4:	00078613          	mv	a2,a5
    800060f8:	fe843583          	ld	a1,-24(s0)
    800060fc:	fd843503          	ld	a0,-40(s0)
    80006100:	c68fa0ef          	jal	ra,80000568 <XIic_CfgInitialize>
    80006104:	00050793          	mv	a5,a0
    80006108:	00078513          	mv	a0,a5
    8000610c:	02813083          	ld	ra,40(sp)
    80006110:	02013403          	ld	s0,32(sp)
    80006114:	03010113          	addi	sp,sp,48
    80006118:	00008067          	ret

000000008000611c <Xil_In32>:
    8000611c:	fe010113          	addi	sp,sp,-32
    80006120:	00813c23          	sd	s0,24(sp)
    80006124:	02010413          	addi	s0,sp,32
    80006128:	fea43423          	sd	a0,-24(s0)
    8000612c:	fe843783          	ld	a5,-24(s0)
    80006130:	0007a783          	lw	a5,0(a5)
    80006134:	0007879b          	sext.w	a5,a5
    80006138:	00078513          	mv	a0,a5
    8000613c:	01813403          	ld	s0,24(sp)
    80006140:	02010113          	addi	sp,sp,32
    80006144:	00008067          	ret

0000000080006148 <Xil_Out32>:
    80006148:	fd010113          	addi	sp,sp,-48
    8000614c:	02813423          	sd	s0,40(sp)
    80006150:	03010413          	addi	s0,sp,48
    80006154:	fca43c23          	sd	a0,-40(s0)
    80006158:	00058793          	mv	a5,a1
    8000615c:	fcf42a23          	sw	a5,-44(s0)
    80006160:	fd843783          	ld	a5,-40(s0)
    80006164:	fef43423          	sd	a5,-24(s0)
    80006168:	fe843783          	ld	a5,-24(s0)
    8000616c:	fd442703          	lw	a4,-44(s0)
    80006170:	00e7a023          	sw	a4,0(a5)
    80006174:	00000013          	nop
    80006178:	02813403          	ld	s0,40(sp)
    8000617c:	03010113          	addi	sp,sp,48
    80006180:	00008067          	ret

0000000080006184 <XIic_SlaveInclude>:
    80006184:	ff010113          	addi	sp,sp,-16
    80006188:	00813423          	sd	s0,8(sp)
    8000618c:	01010413          	addi	s0,sp,16
    80006190:	00001797          	auipc	a5,0x1
    80006194:	05878793          	addi	a5,a5,88 # 800071e8 <XIic_AddrAsSlaveFuncPtr>
    80006198:	00000717          	auipc	a4,0x0
    8000619c:	37070713          	addi	a4,a4,880 # 80006508 <AddrAsSlaveHandler>
    800061a0:	00e7b023          	sd	a4,0(a5)
    800061a4:	00001797          	auipc	a5,0x1
    800061a8:	04c78793          	addi	a5,a5,76 # 800071f0 <XIic_NotAddrAsSlaveFuncPtr>
    800061ac:	00000717          	auipc	a4,0x0
    800061b0:	4bc70713          	addi	a4,a4,1212 # 80006668 <NotAddrAsSlaveHandler>
    800061b4:	00e7b023          	sd	a4,0(a5)
    800061b8:	00001797          	auipc	a5,0x1
    800061bc:	04078793          	addi	a5,a5,64 # 800071f8 <XIic_RecvSlaveFuncPtr>
    800061c0:	00001717          	auipc	a4,0x1
    800061c4:	90c70713          	addi	a4,a4,-1780 # 80006acc <RecvSlaveData>
    800061c8:	00e7b023          	sd	a4,0(a5)
    800061cc:	00001797          	auipc	a5,0x1
    800061d0:	03478793          	addi	a5,a5,52 # 80007200 <XIic_SendSlaveFuncPtr>
    800061d4:	00001717          	auipc	a4,0x1
    800061d8:	b2070713          	addi	a4,a4,-1248 # 80006cf4 <SendSlaveData>
    800061dc:	00e7b023          	sd	a4,0(a5)
    800061e0:	00000013          	nop
    800061e4:	00813403          	ld	s0,8(sp)
    800061e8:	01010113          	addi	sp,sp,16
    800061ec:	00008067          	ret

00000000800061f0 <XIic_SlaveSend>:
    800061f0:	fb010113          	addi	sp,sp,-80
    800061f4:	04113423          	sd	ra,72(sp)
    800061f8:	04813023          	sd	s0,64(sp)
    800061fc:	02913c23          	sd	s1,56(sp)
    80006200:	05010413          	addi	s0,sp,80
    80006204:	fca43423          	sd	a0,-56(s0)
    80006208:	fcb43023          	sd	a1,-64(s0)
    8000620c:	00060793          	mv	a5,a2
    80006210:	faf42e23          	sw	a5,-68(s0)
    80006214:	fc843783          	ld	a5,-56(s0)
    80006218:	0107b783          	ld	a5,16(a5)
    8000621c:	10478793          	addi	a5,a5,260
    80006220:	00078513          	mv	a0,a5
    80006224:	ef9ff0ef          	jal	ra,8000611c <Xil_In32>
    80006228:	00050793          	mv	a5,a0
    8000622c:	fcf42c23          	sw	a5,-40(s0)
    80006230:	fd842783          	lw	a5,-40(s0)
    80006234:	0027f793          	andi	a5,a5,2
    80006238:	0007879b          	sext.w	a5,a5
    8000623c:	00079663          	bnez	a5,80006248 <XIic_SlaveSend+0x58>
    80006240:	44000793          	li	a5,1088
    80006244:	10c0006f          	j	80006350 <XIic_SlaveSend+0x160>
    80006248:	fc843783          	ld	a5,-56(s0)
    8000624c:	0107b783          	ld	a5,16(a5)
    80006250:	01c78793          	addi	a5,a5,28
    80006254:	00000593          	li	a1,0
    80006258:	00078513          	mv	a0,a5
    8000625c:	eedff0ef          	jal	ra,80006148 <Xil_Out32>
    80006260:	fc843783          	ld	a5,-56(s0)
    80006264:	fbc42703          	lw	a4,-68(s0)
    80006268:	04e7a223          	sw	a4,68(a5)
    8000626c:	fc843783          	ld	a5,-56(s0)
    80006270:	fc043703          	ld	a4,-64(s0)
    80006274:	02e7b823          	sd	a4,48(a5)
    80006278:	fc843783          	ld	a5,-56(s0)
    8000627c:	0207bc23          	sd	zero,56(a5)
    80006280:	00000593          	li	a1,0
    80006284:	fc843503          	ld	a0,-56(s0)
    80006288:	bd4fc0ef          	jal	ra,8000265c <XIic_TransmitFifoFill>
    8000628c:	00600793          	li	a5,6
    80006290:	fcf42e23          	sw	a5,-36(s0)
    80006294:	fc843783          	ld	a5,-56(s0)
    80006298:	0447a783          	lw	a5,68(a5)
    8000629c:	00078713          	mv	a4,a5
    800062a0:	00100793          	li	a5,1
    800062a4:	00e7d863          	bge	a5,a4,800062b4 <XIic_SlaveSend+0xc4>
    800062a8:	fdc42783          	lw	a5,-36(s0)
    800062ac:	0807e793          	ori	a5,a5,128
    800062b0:	fcf42e23          	sw	a5,-36(s0)
    800062b4:	fc843783          	ld	a5,-56(s0)
    800062b8:	0107b783          	ld	a5,16(a5)
    800062bc:	02078493          	addi	s1,a5,32
    800062c0:	fc843783          	ld	a5,-56(s0)
    800062c4:	0107b783          	ld	a5,16(a5)
    800062c8:	02078793          	addi	a5,a5,32
    800062cc:	00078513          	mv	a0,a5
    800062d0:	e4dff0ef          	jal	ra,8000611c <Xil_In32>
    800062d4:	00050793          	mv	a5,a0
    800062d8:	0007871b          	sext.w	a4,a5
    800062dc:	fdc42783          	lw	a5,-36(s0)
    800062e0:	00e7f7b3          	and	a5,a5,a4
    800062e4:	0007879b          	sext.w	a5,a5
    800062e8:	00078593          	mv	a1,a5
    800062ec:	00048513          	mv	a0,s1
    800062f0:	e59ff0ef          	jal	ra,80006148 <Xil_Out32>
    800062f4:	fc843783          	ld	a5,-56(s0)
    800062f8:	0107b783          	ld	a5,16(a5)
    800062fc:	02878493          	addi	s1,a5,40
    80006300:	fc843783          	ld	a5,-56(s0)
    80006304:	0107b783          	ld	a5,16(a5)
    80006308:	02878793          	addi	a5,a5,40
    8000630c:	00078513          	mv	a0,a5
    80006310:	e0dff0ef          	jal	ra,8000611c <Xil_In32>
    80006314:	00050793          	mv	a5,a0
    80006318:	0007871b          	sext.w	a4,a5
    8000631c:	fdc42783          	lw	a5,-36(s0)
    80006320:	00e7e7b3          	or	a5,a5,a4
    80006324:	0007879b          	sext.w	a5,a5
    80006328:	00078593          	mv	a1,a5
    8000632c:	00048513          	mv	a0,s1
    80006330:	e19ff0ef          	jal	ra,80006148 <Xil_Out32>
    80006334:	fc843783          	ld	a5,-56(s0)
    80006338:	0107b783          	ld	a5,16(a5)
    8000633c:	01c78793          	addi	a5,a5,28
    80006340:	800005b7          	lui	a1,0x80000
    80006344:	00078513          	mv	a0,a5
    80006348:	e01ff0ef          	jal	ra,80006148 <Xil_Out32>
    8000634c:	00000793          	li	a5,0
    80006350:	00078513          	mv	a0,a5
    80006354:	04813083          	ld	ra,72(sp)
    80006358:	04013403          	ld	s0,64(sp)
    8000635c:	03813483          	ld	s1,56(sp)
    80006360:	05010113          	addi	sp,sp,80
    80006364:	00008067          	ret

0000000080006368 <XIic_SlaveRecv>:
    80006368:	fb010113          	addi	sp,sp,-80
    8000636c:	04113423          	sd	ra,72(sp)
    80006370:	04813023          	sd	s0,64(sp)
    80006374:	02913c23          	sd	s1,56(sp)
    80006378:	05010413          	addi	s0,sp,80
    8000637c:	fca43423          	sd	a0,-56(s0)
    80006380:	fcb43023          	sd	a1,-64(s0)
    80006384:	00060793          	mv	a5,a2
    80006388:	faf42e23          	sw	a5,-68(s0)
    8000638c:	fc843783          	ld	a5,-56(s0)
    80006390:	0107b783          	ld	a5,16(a5)
    80006394:	10478793          	addi	a5,a5,260
    80006398:	00078513          	mv	a0,a5
    8000639c:	d81ff0ef          	jal	ra,8000611c <Xil_In32>
    800063a0:	00050793          	mv	a5,a0
    800063a4:	fcf42e23          	sw	a5,-36(s0)
    800063a8:	fdc42783          	lw	a5,-36(s0)
    800063ac:	0027f793          	andi	a5,a5,2
    800063b0:	0007879b          	sext.w	a5,a5
    800063b4:	00079663          	bnez	a5,800063c0 <XIic_SlaveRecv+0x58>
    800063b8:	44000793          	li	a5,1088
    800063bc:	1340006f          	j	800064f0 <XIic_SlaveRecv+0x188>
    800063c0:	fc843783          	ld	a5,-56(s0)
    800063c4:	0107b783          	ld	a5,16(a5)
    800063c8:	01c78793          	addi	a5,a5,28
    800063cc:	00000593          	li	a1,0
    800063d0:	00078513          	mv	a0,a5
    800063d4:	d75ff0ef          	jal	ra,80006148 <Xil_Out32>
    800063d8:	fc843783          	ld	a5,-56(s0)
    800063dc:	fbc42703          	lw	a4,-68(s0)
    800063e0:	04e7a423          	sw	a4,72(a5)
    800063e4:	fc843783          	ld	a5,-56(s0)
    800063e8:	fc043703          	ld	a4,-64(s0)
    800063ec:	02e7bc23          	sd	a4,56(a5)
    800063f0:	fc843783          	ld	a5,-56(s0)
    800063f4:	0207b823          	sd	zero,48(a5)
    800063f8:	fbc42783          	lw	a5,-68(s0)
    800063fc:	0007871b          	sext.w	a4,a5
    80006400:	01000793          	li	a5,16
    80006404:	02e7d063          	bge	a5,a4,80006424 <XIic_SlaveRecv+0xbc>
    80006408:	fc843783          	ld	a5,-56(s0)
    8000640c:	0107b783          	ld	a5,16(a5)
    80006410:	12078793          	addi	a5,a5,288
    80006414:	00f00593          	li	a1,15
    80006418:	00078513          	mv	a0,a5
    8000641c:	d2dff0ef          	jal	ra,80006148 <Xil_Out32>
    80006420:	02c0006f          	j	8000644c <XIic_SlaveRecv+0xe4>
    80006424:	fc843783          	ld	a5,-56(s0)
    80006428:	0107b783          	ld	a5,16(a5)
    8000642c:	12078713          	addi	a4,a5,288
    80006430:	fbc42783          	lw	a5,-68(s0)
    80006434:	fff7879b          	addiw	a5,a5,-1
    80006438:	0007879b          	sext.w	a5,a5
    8000643c:	0007879b          	sext.w	a5,a5
    80006440:	00078593          	mv	a1,a5
    80006444:	00070513          	mv	a0,a4
    80006448:	d01ff0ef          	jal	ra,80006148 <Xil_Out32>
    8000644c:	fbc42783          	lw	a5,-68(s0)
    80006450:	0007871b          	sext.w	a4,a5
    80006454:	00100793          	li	a5,1
    80006458:	04e7d063          	bge	a5,a4,80006498 <XIic_SlaveRecv+0x130>
    8000645c:	fc843783          	ld	a5,-56(s0)
    80006460:	0107b783          	ld	a5,16(a5)
    80006464:	02078493          	addi	s1,a5,32
    80006468:	fc843783          	ld	a5,-56(s0)
    8000646c:	0107b783          	ld	a5,16(a5)
    80006470:	02078793          	addi	a5,a5,32
    80006474:	00078513          	mv	a0,a5
    80006478:	ca5ff0ef          	jal	ra,8000611c <Xil_In32>
    8000647c:	00050793          	mv	a5,a0
    80006480:	0007879b          	sext.w	a5,a5
    80006484:	0087f793          	andi	a5,a5,8
    80006488:	0007879b          	sext.w	a5,a5
    8000648c:	00078593          	mv	a1,a5
    80006490:	00048513          	mv	a0,s1
    80006494:	cb5ff0ef          	jal	ra,80006148 <Xil_Out32>
    80006498:	fc843783          	ld	a5,-56(s0)
    8000649c:	0107b783          	ld	a5,16(a5)
    800064a0:	02878493          	addi	s1,a5,40
    800064a4:	fc843783          	ld	a5,-56(s0)
    800064a8:	0107b783          	ld	a5,16(a5)
    800064ac:	02878793          	addi	a5,a5,40
    800064b0:	00078513          	mv	a0,a5
    800064b4:	c69ff0ef          	jal	ra,8000611c <Xil_In32>
    800064b8:	00050793          	mv	a5,a0
    800064bc:	0007879b          	sext.w	a5,a5
    800064c0:	0087e793          	ori	a5,a5,8
    800064c4:	0007879b          	sext.w	a5,a5
    800064c8:	00078593          	mv	a1,a5
    800064cc:	00048513          	mv	a0,s1
    800064d0:	c79ff0ef          	jal	ra,80006148 <Xil_Out32>
    800064d4:	fc843783          	ld	a5,-56(s0)
    800064d8:	0107b783          	ld	a5,16(a5)
    800064dc:	01c78793          	addi	a5,a5,28
    800064e0:	800005b7          	lui	a1,0x80000
    800064e4:	00078513          	mv	a0,a5
    800064e8:	c61ff0ef          	jal	ra,80006148 <Xil_Out32>
    800064ec:	00000793          	li	a5,0
    800064f0:	00078513          	mv	a0,a5
    800064f4:	04813083          	ld	ra,72(sp)
    800064f8:	04013403          	ld	s0,64(sp)
    800064fc:	03813483          	ld	s1,56(sp)
    80006500:	05010113          	addi	sp,sp,80
    80006504:	00008067          	ret

0000000080006508 <AddrAsSlaveHandler>:
    80006508:	fc010113          	addi	sp,sp,-64
    8000650c:	02113c23          	sd	ra,56(sp)
    80006510:	02813823          	sd	s0,48(sp)
    80006514:	02913423          	sd	s1,40(sp)
    80006518:	04010413          	addi	s0,sp,64
    8000651c:	fca43423          	sd	a0,-56(s0)
    80006520:	fc843783          	ld	a5,-56(s0)
    80006524:	0107b783          	ld	a5,16(a5)
    80006528:	02878493          	addi	s1,a5,40
    8000652c:	fc843783          	ld	a5,-56(s0)
    80006530:	0107b783          	ld	a5,16(a5)
    80006534:	02878793          	addi	a5,a5,40
    80006538:	00078513          	mv	a0,a5
    8000653c:	be1ff0ef          	jal	ra,8000611c <Xil_In32>
    80006540:	00050793          	mv	a5,a0
    80006544:	0007879b          	sext.w	a5,a5
    80006548:	fdf7f793          	andi	a5,a5,-33
    8000654c:	0007879b          	sext.w	a5,a5
    80006550:	00078593          	mv	a1,a5
    80006554:	00048513          	mv	a0,s1
    80006558:	bf1ff0ef          	jal	ra,80006148 <Xil_Out32>
    8000655c:	fc843783          	ld	a5,-56(s0)
    80006560:	0107b783          	ld	a5,16(a5)
    80006564:	02078493          	addi	s1,a5,32
    80006568:	fc843783          	ld	a5,-56(s0)
    8000656c:	0107b783          	ld	a5,16(a5)
    80006570:	02078793          	addi	a5,a5,32
    80006574:	00078513          	mv	a0,a5
    80006578:	ba5ff0ef          	jal	ra,8000611c <Xil_In32>
    8000657c:	00050793          	mv	a5,a0
    80006580:	0007879b          	sext.w	a5,a5
    80006584:	0407f793          	andi	a5,a5,64
    80006588:	0007879b          	sext.w	a5,a5
    8000658c:	00078593          	mv	a1,a5
    80006590:	00048513          	mv	a0,s1
    80006594:	bb5ff0ef          	jal	ra,80006148 <Xil_Out32>
    80006598:	fc843783          	ld	a5,-56(s0)
    8000659c:	0107b783          	ld	a5,16(a5)
    800065a0:	02878493          	addi	s1,a5,40
    800065a4:	fc843783          	ld	a5,-56(s0)
    800065a8:	0107b783          	ld	a5,16(a5)
    800065ac:	02878793          	addi	a5,a5,40
    800065b0:	00078513          	mv	a0,a5
    800065b4:	b69ff0ef          	jal	ra,8000611c <Xil_In32>
    800065b8:	00050793          	mv	a5,a0
    800065bc:	0007879b          	sext.w	a5,a5
    800065c0:	0407e793          	ori	a5,a5,64
    800065c4:	0007879b          	sext.w	a5,a5
    800065c8:	00078593          	mv	a1,a5
    800065cc:	00048513          	mv	a0,s1
    800065d0:	b79ff0ef          	jal	ra,80006148 <Xil_Out32>
    800065d4:	fc843783          	ld	a5,-56(s0)
    800065d8:	0107b783          	ld	a5,16(a5)
    800065dc:	10478793          	addi	a5,a5,260
    800065e0:	00078513          	mv	a0,a5
    800065e4:	b39ff0ef          	jal	ra,8000611c <Xil_In32>
    800065e8:	00050793          	mv	a5,a0
    800065ec:	fcf42c23          	sw	a5,-40(s0)
    800065f0:	fd842783          	lw	a5,-40(s0)
    800065f4:	0087f793          	andi	a5,a5,8
    800065f8:	0007879b          	sext.w	a5,a5
    800065fc:	00078863          	beqz	a5,8000660c <AddrAsSlaveHandler+0x104>
    80006600:	00800793          	li	a5,8
    80006604:	fcf42e23          	sw	a5,-36(s0)
    80006608:	00c0006f          	j	80006614 <AddrAsSlaveHandler+0x10c>
    8000660c:	01000793          	li	a5,16
    80006610:	fcf42e23          	sw	a5,-36(s0)
    80006614:	fd842783          	lw	a5,-40(s0)
    80006618:	0017f793          	andi	a5,a5,1
    8000661c:	0007879b          	sext.w	a5,a5
    80006620:	00078863          	beqz	a5,80006630 <AddrAsSlaveHandler+0x128>
    80006624:	fdc42783          	lw	a5,-36(s0)
    80006628:	0207e793          	ori	a5,a5,32
    8000662c:	fcf42e23          	sw	a5,-36(s0)
    80006630:	fc843783          	ld	a5,-56(s0)
    80006634:	0587b683          	ld	a3,88(a5)
    80006638:	fc843783          	ld	a5,-56(s0)
    8000663c:	0607b783          	ld	a5,96(a5)
    80006640:	fdc42703          	lw	a4,-36(s0)
    80006644:	00070593          	mv	a1,a4
    80006648:	00078513          	mv	a0,a5
    8000664c:	000680e7          	jalr	a3
    80006650:	00000013          	nop
    80006654:	03813083          	ld	ra,56(sp)
    80006658:	03013403          	ld	s0,48(sp)
    8000665c:	02813483          	ld	s1,40(sp)
    80006660:	04010113          	addi	sp,sp,64
    80006664:	00008067          	ret

0000000080006668 <NotAddrAsSlaveHandler>:
    80006668:	fb010113          	addi	sp,sp,-80
    8000666c:	04113423          	sd	ra,72(sp)
    80006670:	04813023          	sd	s0,64(sp)
    80006674:	02913c23          	sd	s1,56(sp)
    80006678:	05010413          	addi	s0,sp,80
    8000667c:	faa43c23          	sd	a0,-72(s0)
    80006680:	fb843783          	ld	a5,-72(s0)
    80006684:	0107b783          	ld	a5,16(a5)
    80006688:	02878493          	addi	s1,a5,40
    8000668c:	fb843783          	ld	a5,-72(s0)
    80006690:	0107b783          	ld	a5,16(a5)
    80006694:	02878793          	addi	a5,a5,40
    80006698:	00078513          	mv	a0,a5
    8000669c:	a81ff0ef          	jal	ra,8000611c <Xil_In32>
    800066a0:	00050793          	mv	a5,a0
    800066a4:	0007879b          	sext.w	a5,a5
    800066a8:	fbf7f793          	andi	a5,a5,-65
    800066ac:	0007879b          	sext.w	a5,a5
    800066b0:	00078593          	mv	a1,a5
    800066b4:	00048513          	mv	a0,s1
    800066b8:	a91ff0ef          	jal	ra,80006148 <Xil_Out32>
    800066bc:	fb843783          	ld	a5,-72(s0)
    800066c0:	0107b783          	ld	a5,16(a5)
    800066c4:	02078493          	addi	s1,a5,32
    800066c8:	fb843783          	ld	a5,-72(s0)
    800066cc:	0107b783          	ld	a5,16(a5)
    800066d0:	02078793          	addi	a5,a5,32
    800066d4:	00078513          	mv	a0,a5
    800066d8:	a45ff0ef          	jal	ra,8000611c <Xil_In32>
    800066dc:	00050793          	mv	a5,a0
    800066e0:	0007879b          	sext.w	a5,a5
    800066e4:	0207f793          	andi	a5,a5,32
    800066e8:	0007879b          	sext.w	a5,a5
    800066ec:	00078593          	mv	a1,a5
    800066f0:	00048513          	mv	a0,s1
    800066f4:	a55ff0ef          	jal	ra,80006148 <Xil_Out32>
    800066f8:	fb843783          	ld	a5,-72(s0)
    800066fc:	0107b783          	ld	a5,16(a5)
    80006700:	02878493          	addi	s1,a5,40
    80006704:	fb843783          	ld	a5,-72(s0)
    80006708:	0107b783          	ld	a5,16(a5)
    8000670c:	02878793          	addi	a5,a5,40
    80006710:	00078513          	mv	a0,a5
    80006714:	a09ff0ef          	jal	ra,8000611c <Xil_In32>
    80006718:	00050793          	mv	a5,a0
    8000671c:	0007879b          	sext.w	a5,a5
    80006720:	0207e793          	ori	a5,a5,32
    80006724:	0007879b          	sext.w	a5,a5
    80006728:	00078593          	mv	a1,a5
    8000672c:	00048513          	mv	a0,s1
    80006730:	a19ff0ef          	jal	ra,80006148 <Xil_Out32>
    80006734:	fb843783          	ld	a5,-72(s0)
    80006738:	0107b783          	ld	a5,16(a5)
    8000673c:	10478793          	addi	a5,a5,260
    80006740:	00078513          	mv	a0,a5
    80006744:	9d9ff0ef          	jal	ra,8000611c <Xil_In32>
    80006748:	00050793          	mv	a5,a0
    8000674c:	fcf42a23          	sw	a5,-44(s0)
    80006750:	fb843783          	ld	a5,-72(s0)
    80006754:	0107b783          	ld	a5,16(a5)
    80006758:	11478793          	addi	a5,a5,276
    8000675c:	00078513          	mv	a0,a5
    80006760:	9bdff0ef          	jal	ra,8000611c <Xil_In32>
    80006764:	00050793          	mv	a5,a0
    80006768:	fcf42823          	sw	a5,-48(s0)
    8000676c:	fd442783          	lw	a5,-44(s0)
    80006770:	0807f793          	andi	a5,a5,128
    80006774:	0007879b          	sext.w	a5,a5
    80006778:	02079a63          	bnez	a5,800067ac <NotAddrAsSlaveHandler+0x144>
    8000677c:	fb843783          	ld	a5,-72(s0)
    80006780:	0057c783          	lbu	a5,5(a5)
    80006784:	0007871b          	sext.w	a4,a5
    80006788:	fd042783          	lw	a5,-48(s0)
    8000678c:	40f707bb          	subw	a5,a4,a5
    80006790:	0007879b          	sext.w	a5,a5
    80006794:	fff7879b          	addiw	a5,a5,-1
    80006798:	0007879b          	sext.w	a5,a5
    8000679c:	0007871b          	sext.w	a4,a5
    800067a0:	fb843783          	ld	a5,-72(s0)
    800067a4:	04e7a223          	sw	a4,68(a5)
    800067a8:	0180006f          	j	800067c0 <NotAddrAsSlaveHandler+0x158>
    800067ac:	fb843783          	ld	a5,-72(s0)
    800067b0:	0057c783          	lbu	a5,5(a5)
    800067b4:	0007871b          	sext.w	a4,a5
    800067b8:	fb843783          	ld	a5,-72(s0)
    800067bc:	04e7a223          	sw	a4,68(a5)
    800067c0:	fb843783          	ld	a5,-72(s0)
    800067c4:	0107b783          	ld	a5,16(a5)
    800067c8:	10078793          	addi	a5,a5,256
    800067cc:	00078513          	mv	a0,a5
    800067d0:	94dff0ef          	jal	ra,8000611c <Xil_In32>
    800067d4:	00050793          	mv	a5,a0
    800067d8:	fcf42623          	sw	a5,-52(s0)
    800067dc:	fb843783          	ld	a5,-72(s0)
    800067e0:	0107b783          	ld	a5,16(a5)
    800067e4:	10078713          	addi	a4,a5,256
    800067e8:	fcc42783          	lw	a5,-52(s0)
    800067ec:	0027e793          	ori	a5,a5,2
    800067f0:	0007879b          	sext.w	a5,a5
    800067f4:	00078593          	mv	a1,a5
    800067f8:	00070513          	mv	a0,a4
    800067fc:	94dff0ef          	jal	ra,80006148 <Xil_Out32>
    80006800:	fb843783          	ld	a5,-72(s0)
    80006804:	0107b783          	ld	a5,16(a5)
    80006808:	10078793          	addi	a5,a5,256
    8000680c:	fcc42703          	lw	a4,-52(s0)
    80006810:	00070593          	mv	a1,a4
    80006814:	00078513          	mv	a0,a5
    80006818:	931ff0ef          	jal	ra,80006148 <Xil_Out32>
    8000681c:	fb843783          	ld	a5,-72(s0)
    80006820:	0107b783          	ld	a5,16(a5)
    80006824:	10478793          	addi	a5,a5,260
    80006828:	00078513          	mv	a0,a5
    8000682c:	8f1ff0ef          	jal	ra,8000611c <Xil_In32>
    80006830:	00050793          	mv	a5,a0
    80006834:	fcf42a23          	sw	a5,-44(s0)
    80006838:	fd442783          	lw	a5,-44(s0)
    8000683c:	0407f793          	andi	a5,a5,64
    80006840:	0007879b          	sext.w	a5,a5
    80006844:	14079663          	bnez	a5,80006990 <NotAddrAsSlaveHandler+0x328>
    80006848:	fb843783          	ld	a5,-72(s0)
    8000684c:	0107b783          	ld	a5,16(a5)
    80006850:	11878793          	addi	a5,a5,280
    80006854:	00078513          	mv	a0,a5
    80006858:	8c5ff0ef          	jal	ra,8000611c <Xil_In32>
    8000685c:	00050793          	mv	a5,a0
    80006860:	0007879b          	sext.w	a5,a5
    80006864:	0ff7f793          	andi	a5,a5,255
    80006868:	0017879b          	addiw	a5,a5,1
    8000686c:	fcf405a3          	sb	a5,-53(s0)
    80006870:	fb843783          	ld	a5,-72(s0)
    80006874:	0487a703          	lw	a4,72(a5)
    80006878:	fcb44783          	lbu	a5,-53(s0)
    8000687c:	0007879b          	sext.w	a5,a5
    80006880:	08e7de63          	bge	a5,a4,8000691c <NotAddrAsSlaveHandler+0x2b4>
    80006884:	fc040fa3          	sb	zero,-33(s0)
    80006888:	07c0006f          	j	80006904 <NotAddrAsSlaveHandler+0x29c>
    8000688c:	fb843783          	ld	a5,-72(s0)
    80006890:	0107b783          	ld	a5,16(a5)
    80006894:	10c78793          	addi	a5,a5,268
    80006898:	00078513          	mv	a0,a5
    8000689c:	881ff0ef          	jal	ra,8000611c <Xil_In32>
    800068a0:	00050793          	mv	a5,a0
    800068a4:	0007861b          	sext.w	a2,a5
    800068a8:	fb843783          	ld	a5,-72(s0)
    800068ac:	0387b783          	ld	a5,56(a5)
    800068b0:	00178693          	addi	a3,a5,1
    800068b4:	fb843703          	ld	a4,-72(s0)
    800068b8:	02d73c23          	sd	a3,56(a4)
    800068bc:	00060713          	mv	a4,a2
    800068c0:	0ff77713          	andi	a4,a4,255
    800068c4:	00e78023          	sb	a4,0(a5)
    800068c8:	fb843783          	ld	a5,-72(s0)
    800068cc:	0487a783          	lw	a5,72(a5)
    800068d0:	fff7879b          	addiw	a5,a5,-1
    800068d4:	0007871b          	sext.w	a4,a5
    800068d8:	fb843783          	ld	a5,-72(s0)
    800068dc:	04e7a423          	sw	a4,72(a5)
    800068e0:	fb843783          	ld	a5,-72(s0)
    800068e4:	0037c783          	lbu	a5,3(a5)
    800068e8:	0017879b          	addiw	a5,a5,1
    800068ec:	0ff7f713          	andi	a4,a5,255
    800068f0:	fb843783          	ld	a5,-72(s0)
    800068f4:	00e781a3          	sb	a4,3(a5)
    800068f8:	fdf44783          	lbu	a5,-33(s0)
    800068fc:	0017879b          	addiw	a5,a5,1
    80006900:	fcf40fa3          	sb	a5,-33(s0)
    80006904:	fdf44703          	lbu	a4,-33(s0)
    80006908:	fcb44783          	lbu	a5,-53(s0)
    8000690c:	0ff77713          	andi	a4,a4,255
    80006910:	0ff7f793          	andi	a5,a5,255
    80006914:	f6f76ce3          	bltu	a4,a5,8000688c <NotAddrAsSlaveHandler+0x224>
    80006918:	0780006f          	j	80006990 <NotAddrAsSlaveHandler+0x328>
    8000691c:	fd442783          	lw	a5,-44(s0)
    80006920:	0027f793          	andi	a5,a5,2
    80006924:	0007879b          	sext.w	a5,a5
    80006928:	06079463          	bnez	a5,80006990 <NotAddrAsSlaveHandler+0x328>
    8000692c:	fb843783          	ld	a5,-72(s0)
    80006930:	0107b783          	ld	a5,16(a5)
    80006934:	11878793          	addi	a5,a5,280
    80006938:	00078513          	mv	a0,a5
    8000693c:	fe0ff0ef          	jal	ra,8000611c <Xil_In32>
    80006940:	00050793          	mv	a5,a0
    80006944:	0007879b          	sext.w	a5,a5
    80006948:	0ff7f793          	andi	a5,a5,255
    8000694c:	0017879b          	addiw	a5,a5,1
    80006950:	fcf40523          	sb	a5,-54(s0)
    80006954:	fc042c23          	sw	zero,-40(s0)
    80006958:	0240006f          	j	8000697c <NotAddrAsSlaveHandler+0x314>
    8000695c:	fb843783          	ld	a5,-72(s0)
    80006960:	0107b783          	ld	a5,16(a5)
    80006964:	10c78793          	addi	a5,a5,268
    80006968:	00078513          	mv	a0,a5
    8000696c:	fb0ff0ef          	jal	ra,8000611c <Xil_In32>
    80006970:	fd842783          	lw	a5,-40(s0)
    80006974:	0017879b          	addiw	a5,a5,1
    80006978:	fcf42c23          	sw	a5,-40(s0)
    8000697c:	fca44783          	lbu	a5,-54(s0)
    80006980:	0007871b          	sext.w	a4,a5
    80006984:	fd842783          	lw	a5,-40(s0)
    80006988:	0007879b          	sext.w	a5,a5
    8000698c:	fce7c8e3          	blt	a5,a4,8000695c <NotAddrAsSlaveHandler+0x2f4>
    80006990:	fb843783          	ld	a5,-72(s0)
    80006994:	0107b783          	ld	a5,16(a5)
    80006998:	12078793          	addi	a5,a5,288
    8000699c:	00000593          	li	a1,0
    800069a0:	00078513          	mv	a0,a5
    800069a4:	fa4ff0ef          	jal	ra,80006148 <Xil_Out32>
    800069a8:	fb843783          	ld	a5,-72(s0)
    800069ac:	0107b783          	ld	a5,16(a5)
    800069b0:	10078793          	addi	a5,a5,256
    800069b4:	00078513          	mv	a0,a5
    800069b8:	f64ff0ef          	jal	ra,8000611c <Xil_In32>
    800069bc:	00050793          	mv	a5,a0
    800069c0:	fcf42223          	sw	a5,-60(s0)
    800069c4:	fb843783          	ld	a5,-72(s0)
    800069c8:	0107b783          	ld	a5,16(a5)
    800069cc:	10078713          	addi	a4,a5,256
    800069d0:	fc442783          	lw	a5,-60(s0)
    800069d4:	fef7f793          	andi	a5,a5,-17
    800069d8:	0007879b          	sext.w	a5,a5
    800069dc:	00078593          	mv	a1,a5
    800069e0:	00070513          	mv	a0,a4
    800069e4:	f64ff0ef          	jal	ra,80006148 <Xil_Out32>
    800069e8:	fb843783          	ld	a5,-72(s0)
    800069ec:	0807a623          	sw	zero,140(a5)
    800069f0:	fb843783          	ld	a5,-72(s0)
    800069f4:	0107b783          	ld	a5,16(a5)
    800069f8:	02878793          	addi	a5,a5,40
    800069fc:	00078513          	mv	a0,a5
    80006a00:	f1cff0ef          	jal	ra,8000611c <Xil_In32>
    80006a04:	00050793          	mv	a5,a0
    80006a08:	fcf42a23          	sw	a5,-44(s0)
    80006a0c:	fb843783          	ld	a5,-72(s0)
    80006a10:	0387b783          	ld	a5,56(a5)
    80006a14:	04079863          	bnez	a5,80006a64 <NotAddrAsSlaveHandler+0x3fc>
    80006a18:	fb843783          	ld	a5,-72(s0)
    80006a1c:	0107b783          	ld	a5,16(a5)
    80006a20:	02878713          	addi	a4,a5,40
    80006a24:	fd442783          	lw	a5,-44(s0)
    80006a28:	f797f793          	andi	a5,a5,-135
    80006a2c:	0007879b          	sext.w	a5,a5
    80006a30:	00078593          	mv	a1,a5
    80006a34:	00070513          	mv	a0,a4
    80006a38:	f10ff0ef          	jal	ra,80006148 <Xil_Out32>
    80006a3c:	fb843783          	ld	a5,-72(s0)
    80006a40:	0787b683          	ld	a3,120(a5)
    80006a44:	fb843783          	ld	a5,-72(s0)
    80006a48:	0807b703          	ld	a4,128(a5)
    80006a4c:	fb843783          	ld	a5,-72(s0)
    80006a50:	0447a783          	lw	a5,68(a5)
    80006a54:	00078593          	mv	a1,a5
    80006a58:	00070513          	mv	a0,a4
    80006a5c:	000680e7          	jalr	a3
    80006a60:	04c0006f          	j	80006aac <NotAddrAsSlaveHandler+0x444>
    80006a64:	fb843783          	ld	a5,-72(s0)
    80006a68:	0107b783          	ld	a5,16(a5)
    80006a6c:	02878713          	addi	a4,a5,40
    80006a70:	fd442783          	lw	a5,-44(s0)
    80006a74:	ff77f793          	andi	a5,a5,-9
    80006a78:	0007879b          	sext.w	a5,a5
    80006a7c:	00078593          	mv	a1,a5
    80006a80:	00070513          	mv	a0,a4
    80006a84:	ec4ff0ef          	jal	ra,80006148 <Xil_Out32>
    80006a88:	fb843783          	ld	a5,-72(s0)
    80006a8c:	0687b683          	ld	a3,104(a5)
    80006a90:	fb843783          	ld	a5,-72(s0)
    80006a94:	0707b703          	ld	a4,112(a5)
    80006a98:	fb843783          	ld	a5,-72(s0)
    80006a9c:	0487a783          	lw	a5,72(a5)
    80006aa0:	00078593          	mv	a1,a5
    80006aa4:	00070513          	mv	a0,a4
    80006aa8:	000680e7          	jalr	a3
    80006aac:	fb843783          	ld	a5,-72(s0)
    80006ab0:	0407a423          	sw	zero,72(a5)
    80006ab4:	00000013          	nop
    80006ab8:	04813083          	ld	ra,72(sp)
    80006abc:	04013403          	ld	s0,64(sp)
    80006ac0:	03813483          	ld	s1,56(sp)
    80006ac4:	05010113          	addi	sp,sp,80
    80006ac8:	00008067          	ret

0000000080006acc <RecvSlaveData>:
    80006acc:	fc010113          	addi	sp,sp,-64
    80006ad0:	02113c23          	sd	ra,56(sp)
    80006ad4:	02813823          	sd	s0,48(sp)
    80006ad8:	04010413          	addi	s0,sp,64
    80006adc:	fca43423          	sd	a0,-56(s0)
    80006ae0:	fc843783          	ld	a5,-56(s0)
    80006ae4:	0487a783          	lw	a5,72(a5)
    80006ae8:	0c079a63          	bnez	a5,80006bbc <RecvSlaveData+0xf0>
    80006aec:	fc843783          	ld	a5,-56(s0)
    80006af0:	0107b783          	ld	a5,16(a5)
    80006af4:	10078793          	addi	a5,a5,256
    80006af8:	00078513          	mv	a0,a5
    80006afc:	e20ff0ef          	jal	ra,8000611c <Xil_In32>
    80006b00:	00050793          	mv	a5,a0
    80006b04:	fef42023          	sw	a5,-32(s0)
    80006b08:	fe042783          	lw	a5,-32(s0)
    80006b0c:	0107e793          	ori	a5,a5,16
    80006b10:	fef42023          	sw	a5,-32(s0)
    80006b14:	fc843783          	ld	a5,-56(s0)
    80006b18:	0107b783          	ld	a5,16(a5)
    80006b1c:	10078793          	addi	a5,a5,256
    80006b20:	fe042703          	lw	a4,-32(s0)
    80006b24:	00070593          	mv	a1,a4
    80006b28:	00078513          	mv	a0,a5
    80006b2c:	e1cff0ef          	jal	ra,80006148 <Xil_Out32>
    80006b30:	fc843783          	ld	a5,-56(s0)
    80006b34:	00100713          	li	a4,1
    80006b38:	08e7a623          	sw	a4,140(a5)
    80006b3c:	fc843783          	ld	a5,-56(s0)
    80006b40:	0107b783          	ld	a5,16(a5)
    80006b44:	11878793          	addi	a5,a5,280
    80006b48:	00078513          	mv	a0,a5
    80006b4c:	dd0ff0ef          	jal	ra,8000611c <Xil_In32>
    80006b50:	00050793          	mv	a5,a0
    80006b54:	0007879b          	sext.w	a5,a5
    80006b58:	0ff7f793          	andi	a5,a5,255
    80006b5c:	0017879b          	addiw	a5,a5,1
    80006b60:	fcf40fa3          	sb	a5,-33(s0)
    80006b64:	fe042423          	sw	zero,-24(s0)
    80006b68:	0240006f          	j	80006b8c <RecvSlaveData+0xc0>
    80006b6c:	fc843783          	ld	a5,-56(s0)
    80006b70:	0107b783          	ld	a5,16(a5)
    80006b74:	10c78793          	addi	a5,a5,268
    80006b78:	00078513          	mv	a0,a5
    80006b7c:	da0ff0ef          	jal	ra,8000611c <Xil_In32>
    80006b80:	fe842783          	lw	a5,-24(s0)
    80006b84:	0017879b          	addiw	a5,a5,1
    80006b88:	fef42423          	sw	a5,-24(s0)
    80006b8c:	fdf44783          	lbu	a5,-33(s0)
    80006b90:	0007871b          	sext.w	a4,a5
    80006b94:	fe842783          	lw	a5,-24(s0)
    80006b98:	0007879b          	sext.w	a5,a5
    80006b9c:	fce7c8e3          	blt	a5,a4,80006b6c <RecvSlaveData+0xa0>
    80006ba0:	fc843783          	ld	a5,-56(s0)
    80006ba4:	0107b783          	ld	a5,16(a5)
    80006ba8:	12078793          	addi	a5,a5,288
    80006bac:	00000593          	li	a1,0
    80006bb0:	00078513          	mv	a0,a5
    80006bb4:	d94ff0ef          	jal	ra,80006148 <Xil_Out32>
    80006bb8:	12c0006f          	j	80006ce4 <RecvSlaveData+0x218>
    80006bbc:	fc843783          	ld	a5,-56(s0)
    80006bc0:	0107b783          	ld	a5,16(a5)
    80006bc4:	11878793          	addi	a5,a5,280
    80006bc8:	00078513          	mv	a0,a5
    80006bcc:	d50ff0ef          	jal	ra,8000611c <Xil_In32>
    80006bd0:	00050793          	mv	a5,a0
    80006bd4:	0007879b          	sext.w	a5,a5
    80006bd8:	0ff7f793          	andi	a5,a5,255
    80006bdc:	0017879b          	addiw	a5,a5,1
    80006be0:	fef403a3          	sb	a5,-25(s0)
    80006be4:	fe0407a3          	sb	zero,-17(s0)
    80006be8:	07c0006f          	j	80006c64 <RecvSlaveData+0x198>
    80006bec:	fc843783          	ld	a5,-56(s0)
    80006bf0:	0107b783          	ld	a5,16(a5)
    80006bf4:	10c78793          	addi	a5,a5,268
    80006bf8:	00078513          	mv	a0,a5
    80006bfc:	d20ff0ef          	jal	ra,8000611c <Xil_In32>
    80006c00:	00050793          	mv	a5,a0
    80006c04:	0007861b          	sext.w	a2,a5
    80006c08:	fc843783          	ld	a5,-56(s0)
    80006c0c:	0387b783          	ld	a5,56(a5)
    80006c10:	00178693          	addi	a3,a5,1
    80006c14:	fc843703          	ld	a4,-56(s0)
    80006c18:	02d73c23          	sd	a3,56(a4)
    80006c1c:	00060713          	mv	a4,a2
    80006c20:	0ff77713          	andi	a4,a4,255
    80006c24:	00e78023          	sb	a4,0(a5)
    80006c28:	fc843783          	ld	a5,-56(s0)
    80006c2c:	0487a783          	lw	a5,72(a5)
    80006c30:	fff7879b          	addiw	a5,a5,-1
    80006c34:	0007871b          	sext.w	a4,a5
    80006c38:	fc843783          	ld	a5,-56(s0)
    80006c3c:	04e7a423          	sw	a4,72(a5)
    80006c40:	fc843783          	ld	a5,-56(s0)
    80006c44:	0037c783          	lbu	a5,3(a5)
    80006c48:	0017879b          	addiw	a5,a5,1
    80006c4c:	0ff7f713          	andi	a4,a5,255
    80006c50:	fc843783          	ld	a5,-56(s0)
    80006c54:	00e781a3          	sb	a4,3(a5)
    80006c58:	fef44783          	lbu	a5,-17(s0)
    80006c5c:	0017879b          	addiw	a5,a5,1
    80006c60:	fef407a3          	sb	a5,-17(s0)
    80006c64:	fef44703          	lbu	a4,-17(s0)
    80006c68:	fe744783          	lbu	a5,-25(s0)
    80006c6c:	0ff77713          	andi	a4,a4,255
    80006c70:	0ff7f793          	andi	a5,a5,255
    80006c74:	f6f76ce3          	bltu	a4,a5,80006bec <RecvSlaveData+0x120>
    80006c78:	fc843783          	ld	a5,-56(s0)
    80006c7c:	0487a783          	lw	a5,72(a5)
    80006c80:	00078713          	mv	a4,a5
    80006c84:	01000793          	li	a5,16
    80006c88:	00e7d863          	bge	a5,a4,80006c98 <RecvSlaveData+0x1cc>
    80006c8c:	00f00793          	li	a5,15
    80006c90:	fef40723          	sb	a5,-18(s0)
    80006c94:	02c0006f          	j	80006cc0 <RecvSlaveData+0x1f4>
    80006c98:	fc843783          	ld	a5,-56(s0)
    80006c9c:	0487a783          	lw	a5,72(a5)
    80006ca0:	00079663          	bnez	a5,80006cac <RecvSlaveData+0x1e0>
    80006ca4:	fe040723          	sb	zero,-18(s0)
    80006ca8:	0180006f          	j	80006cc0 <RecvSlaveData+0x1f4>
    80006cac:	fc843783          	ld	a5,-56(s0)
    80006cb0:	0487a783          	lw	a5,72(a5)
    80006cb4:	0ff7f793          	andi	a5,a5,255
    80006cb8:	fff7879b          	addiw	a5,a5,-1
    80006cbc:	fef40723          	sb	a5,-18(s0)
    80006cc0:	fc843783          	ld	a5,-56(s0)
    80006cc4:	0107b783          	ld	a5,16(a5)
    80006cc8:	12078793          	addi	a5,a5,288
    80006ccc:	fee44703          	lbu	a4,-18(s0)
    80006cd0:	0007071b          	sext.w	a4,a4
    80006cd4:	00070593          	mv	a1,a4
    80006cd8:	00078513          	mv	a0,a5
    80006cdc:	c6cff0ef          	jal	ra,80006148 <Xil_Out32>
    80006ce0:	00000013          	nop
    80006ce4:	03813083          	ld	ra,56(sp)
    80006ce8:	03013403          	ld	s0,48(sp)
    80006cec:	04010113          	addi	sp,sp,64
    80006cf0:	00008067          	ret

0000000080006cf4 <SendSlaveData>:
    80006cf4:	fd010113          	addi	sp,sp,-48
    80006cf8:	02113423          	sd	ra,40(sp)
    80006cfc:	02813023          	sd	s0,32(sp)
    80006d00:	00913c23          	sd	s1,24(sp)
    80006d04:	03010413          	addi	s0,sp,48
    80006d08:	fca43c23          	sd	a0,-40(s0)
    80006d0c:	fd843783          	ld	a5,-40(s0)
    80006d10:	0447a783          	lw	a5,68(a5)
    80006d14:	02079063          	bnez	a5,80006d34 <SendSlaveData+0x40>
    80006d18:	fd843783          	ld	a5,-40(s0)
    80006d1c:	0107b783          	ld	a5,16(a5)
    80006d20:	10878793          	addi	a5,a5,264
    80006d24:	0ff00593          	li	a1,255
    80006d28:	00078513          	mv	a0,a5
    80006d2c:	c1cff0ef          	jal	ra,80006148 <Xil_Out32>
    80006d30:	0600006f          	j	80006d90 <SendSlaveData+0x9c>
    80006d34:	00000593          	li	a1,0
    80006d38:	fd843503          	ld	a0,-40(s0)
    80006d3c:	921fb0ef          	jal	ra,8000265c <XIic_TransmitFifoFill>
    80006d40:	fd843783          	ld	a5,-40(s0)
    80006d44:	0447a783          	lw	a5,68(a5)
    80006d48:	04f04263          	bgtz	a5,80006d8c <SendSlaveData+0x98>
    80006d4c:	fd843783          	ld	a5,-40(s0)
    80006d50:	0107b783          	ld	a5,16(a5)
    80006d54:	02878493          	addi	s1,a5,40
    80006d58:	fd843783          	ld	a5,-40(s0)
    80006d5c:	0107b783          	ld	a5,16(a5)
    80006d60:	02878793          	addi	a5,a5,40
    80006d64:	00078513          	mv	a0,a5
    80006d68:	bb4ff0ef          	jal	ra,8000611c <Xil_In32>
    80006d6c:	00050793          	mv	a5,a0
    80006d70:	0007879b          	sext.w	a5,a5
    80006d74:	f7f7f793          	andi	a5,a5,-129
    80006d78:	0007879b          	sext.w	a5,a5
    80006d7c:	00078593          	mv	a1,a5
    80006d80:	00048513          	mv	a0,s1
    80006d84:	bc4ff0ef          	jal	ra,80006148 <Xil_Out32>
    80006d88:	00000013          	nop
    80006d8c:	00000013          	nop
    80006d90:	02813083          	ld	ra,40(sp)
    80006d94:	02013403          	ld	s0,32(sp)
    80006d98:	01813483          	ld	s1,24(sp)
    80006d9c:	03010113          	addi	sp,sp,48
    80006da0:	00008067          	ret

0000000080006da4 <XIic_GetStats>:
    80006da4:	fc010113          	addi	sp,sp,-64
    80006da8:	02113c23          	sd	ra,56(sp)
    80006dac:	02813823          	sd	s0,48(sp)
    80006db0:	04010413          	addi	s0,sp,64
    80006db4:	fca43423          	sd	a0,-56(s0)
    80006db8:	fcb43023          	sd	a1,-64(s0)
    80006dbc:	fc843783          	ld	a5,-56(s0)
    80006dc0:	01c7a783          	lw	a5,28(a5)
    80006dc4:	00078713          	mv	a4,a5
    80006dc8:	111117b7          	lui	a5,0x11111
    80006dcc:	11178793          	addi	a5,a5,273 # 11111111 <_start-0x6eeeeef7>
    80006dd0:	00f71e63          	bne	a4,a5,80006dec <XIic_GetStats+0x48>
    80006dd4:	00000797          	auipc	a5,0x0
    80006dd8:	46878793          	addi	a5,a5,1128 # 8000723c <Xil_AssertStatus>
    80006ddc:	0007a023          	sw	zero,0(a5)
    80006de0:	fc843783          	ld	a5,-56(s0)
    80006de4:	04078263          	beqz	a5,80006e28 <XIic_GetStats+0x84>
    80006de8:	0280006f          	j	80006e10 <XIic_GetStats+0x6c>
    80006dec:	04200593          	li	a1,66
    80006df0:	00000517          	auipc	a0,0x0
    80006df4:	3b050513          	addi	a0,a0,944 # 800071a0 <Xil_AssertSetCallback+0x16c>
    80006df8:	1cc000ef          	jal	ra,80006fc4 <Xil_Assert>
    80006dfc:	00000797          	auipc	a5,0x0
    80006e00:	44078793          	addi	a5,a5,1088 # 8000723c <Xil_AssertStatus>
    80006e04:	00100713          	li	a4,1
    80006e08:	00e7a023          	sw	a4,0(a5)
    80006e0c:	0c40006f          	j	80006ed0 <XIic_GetStats+0x12c>
    80006e10:	00000797          	auipc	a5,0x0
    80006e14:	42c78793          	addi	a5,a5,1068 # 8000723c <Xil_AssertStatus>
    80006e18:	0007a023          	sw	zero,0(a5)
    80006e1c:	fc043783          	ld	a5,-64(s0)
    80006e20:	04078863          	beqz	a5,80006e70 <XIic_GetStats+0xcc>
    80006e24:	0280006f          	j	80006e4c <XIic_GetStats+0xa8>
    80006e28:	04300593          	li	a1,67
    80006e2c:	00000517          	auipc	a0,0x0
    80006e30:	37450513          	addi	a0,a0,884 # 800071a0 <Xil_AssertSetCallback+0x16c>
    80006e34:	190000ef          	jal	ra,80006fc4 <Xil_Assert>
    80006e38:	00000797          	auipc	a5,0x0
    80006e3c:	40478793          	addi	a5,a5,1028 # 8000723c <Xil_AssertStatus>
    80006e40:	00100713          	li	a4,1
    80006e44:	00e7a023          	sw	a4,0(a5)
    80006e48:	0880006f          	j	80006ed0 <XIic_GetStats+0x12c>
    80006e4c:	00000797          	auipc	a5,0x0
    80006e50:	3f078793          	addi	a5,a5,1008 # 8000723c <Xil_AssertStatus>
    80006e54:	0007a023          	sw	zero,0(a5)
    80006e58:	fc843783          	ld	a5,-56(s0)
    80006e5c:	fef43023          	sd	a5,-32(s0)
    80006e60:	fc043783          	ld	a5,-64(s0)
    80006e64:	fcf43c23          	sd	a5,-40(s0)
    80006e68:	fe0407a3          	sb	zero,-17(s0)
    80006e6c:	0540006f          	j	80006ec0 <XIic_GetStats+0x11c>
    80006e70:	04400593          	li	a1,68
    80006e74:	00000517          	auipc	a0,0x0
    80006e78:	32c50513          	addi	a0,a0,812 # 800071a0 <Xil_AssertSetCallback+0x16c>
    80006e7c:	148000ef          	jal	ra,80006fc4 <Xil_Assert>
    80006e80:	00000797          	auipc	a5,0x0
    80006e84:	3bc78793          	addi	a5,a5,956 # 8000723c <Xil_AssertStatus>
    80006e88:	00100713          	li	a4,1
    80006e8c:	00e7a023          	sw	a4,0(a5)
    80006e90:	0400006f          	j	80006ed0 <XIic_GetStats+0x12c>
    80006e94:	fe043703          	ld	a4,-32(s0)
    80006e98:	00170793          	addi	a5,a4,1
    80006e9c:	fef43023          	sd	a5,-32(s0)
    80006ea0:	fd843783          	ld	a5,-40(s0)
    80006ea4:	00178693          	addi	a3,a5,1
    80006ea8:	fcd43c23          	sd	a3,-40(s0)
    80006eac:	00074703          	lbu	a4,0(a4)
    80006eb0:	00e78023          	sb	a4,0(a5)
    80006eb4:	fef44783          	lbu	a5,-17(s0)
    80006eb8:	0017879b          	addiw	a5,a5,1
    80006ebc:	fef407a3          	sb	a5,-17(s0)
    80006ec0:	fef44783          	lbu	a5,-17(s0)
    80006ec4:	0ff7f713          	andi	a4,a5,255
    80006ec8:	00800793          	li	a5,8
    80006ecc:	fce7f4e3          	bgeu	a5,a4,80006e94 <XIic_GetStats+0xf0>
    80006ed0:	03813083          	ld	ra,56(sp)
    80006ed4:	03013403          	ld	s0,48(sp)
    80006ed8:	04010113          	addi	sp,sp,64
    80006edc:	00008067          	ret

0000000080006ee0 <XIic_ClearStats>:
    80006ee0:	fd010113          	addi	sp,sp,-48
    80006ee4:	02113423          	sd	ra,40(sp)
    80006ee8:	02813023          	sd	s0,32(sp)
    80006eec:	03010413          	addi	s0,sp,48
    80006ef0:	fca43c23          	sd	a0,-40(s0)
    80006ef4:	fd843783          	ld	a5,-40(s0)
    80006ef8:	01c7a783          	lw	a5,28(a5)
    80006efc:	00078713          	mv	a4,a5
    80006f00:	111117b7          	lui	a5,0x11111
    80006f04:	11178793          	addi	a5,a5,273 # 11111111 <_start-0x6eeeeef7>
    80006f08:	00f71e63          	bne	a4,a5,80006f24 <XIic_ClearStats+0x44>
    80006f0c:	00000797          	auipc	a5,0x0
    80006f10:	33078793          	addi	a5,a5,816 # 8000723c <Xil_AssertStatus>
    80006f14:	0007a023          	sw	zero,0(a5)
    80006f18:	fd843783          	ld	a5,-40(s0)
    80006f1c:	04078463          	beqz	a5,80006f64 <XIic_ClearStats+0x84>
    80006f20:	0280006f          	j	80006f48 <XIic_ClearStats+0x68>
    80006f24:	06500593          	li	a1,101
    80006f28:	00000517          	auipc	a0,0x0
    80006f2c:	27850513          	addi	a0,a0,632 # 800071a0 <Xil_AssertSetCallback+0x16c>
    80006f30:	094000ef          	jal	ra,80006fc4 <Xil_Assert>
    80006f34:	00000797          	auipc	a5,0x0
    80006f38:	30878793          	addi	a5,a5,776 # 8000723c <Xil_AssertStatus>
    80006f3c:	00100713          	li	a4,1
    80006f40:	00e7a023          	sw	a4,0(a5)
    80006f44:	0700006f          	j	80006fb4 <XIic_ClearStats+0xd4>
    80006f48:	00000797          	auipc	a5,0x0
    80006f4c:	2f478793          	addi	a5,a5,756 # 8000723c <Xil_AssertStatus>
    80006f50:	0007a023          	sw	zero,0(a5)
    80006f54:	fd843783          	ld	a5,-40(s0)
    80006f58:	fef43023          	sd	a5,-32(s0)
    80006f5c:	fe0407a3          	sb	zero,-17(s0)
    80006f60:	0440006f          	j	80006fa4 <XIic_ClearStats+0xc4>
    80006f64:	06600593          	li	a1,102
    80006f68:	00000517          	auipc	a0,0x0
    80006f6c:	23850513          	addi	a0,a0,568 # 800071a0 <Xil_AssertSetCallback+0x16c>
    80006f70:	054000ef          	jal	ra,80006fc4 <Xil_Assert>
    80006f74:	00000797          	auipc	a5,0x0
    80006f78:	2c878793          	addi	a5,a5,712 # 8000723c <Xil_AssertStatus>
    80006f7c:	00100713          	li	a4,1
    80006f80:	00e7a023          	sw	a4,0(a5)
    80006f84:	0300006f          	j	80006fb4 <XIic_ClearStats+0xd4>
    80006f88:	fe043783          	ld	a5,-32(s0)
    80006f8c:	00178713          	addi	a4,a5,1
    80006f90:	fee43023          	sd	a4,-32(s0)
    80006f94:	00078023          	sb	zero,0(a5)
    80006f98:	fef44783          	lbu	a5,-17(s0)
    80006f9c:	0017879b          	addiw	a5,a5,1
    80006fa0:	fef407a3          	sb	a5,-17(s0)
    80006fa4:	fef44783          	lbu	a5,-17(s0)
    80006fa8:	0ff7f713          	andi	a4,a5,255
    80006fac:	00800793          	li	a5,8
    80006fb0:	fce7fce3          	bgeu	a5,a4,80006f88 <XIic_ClearStats+0xa8>
    80006fb4:	02813083          	ld	ra,40(sp)
    80006fb8:	02013403          	ld	s0,32(sp)
    80006fbc:	03010113          	addi	sp,sp,48
    80006fc0:	00008067          	ret

0000000080006fc4 <Xil_Assert>:
    80006fc4:	fe010113          	addi	sp,sp,-32
    80006fc8:	00113c23          	sd	ra,24(sp)
    80006fcc:	00813823          	sd	s0,16(sp)
    80006fd0:	02010413          	addi	s0,sp,32
    80006fd4:	fea43423          	sd	a0,-24(s0)
    80006fd8:	00058793          	mv	a5,a1
    80006fdc:	fef42223          	sw	a5,-28(s0)
    80006fe0:	00000797          	auipc	a5,0x0
    80006fe4:	2c878793          	addi	a5,a5,712 # 800072a8 <Xil_AssertCallbackRoutine>
    80006fe8:	0007b783          	ld	a5,0(a5)
    80006fec:	02078063          	beqz	a5,8000700c <Xil_Assert+0x48>
    80006ff0:	00000797          	auipc	a5,0x0
    80006ff4:	2b878793          	addi	a5,a5,696 # 800072a8 <Xil_AssertCallbackRoutine>
    80006ff8:	0007b703          	ld	a4,0(a5)
    80006ffc:	fe442783          	lw	a5,-28(s0)
    80007000:	00078593          	mv	a1,a5
    80007004:	fe843503          	ld	a0,-24(s0)
    80007008:	000700e7          	jalr	a4
    8000700c:	00000013          	nop
    80007010:	00000797          	auipc	a5,0x0
    80007014:	21878793          	addi	a5,a5,536 # 80007228 <Xil_AssertWait>
    80007018:	0007a783          	lw	a5,0(a5)
    8000701c:	fe079ae3          	bnez	a5,80007010 <Xil_Assert+0x4c>
    80007020:	00000013          	nop
    80007024:	01813083          	ld	ra,24(sp)
    80007028:	01013403          	ld	s0,16(sp)
    8000702c:	02010113          	addi	sp,sp,32
    80007030:	00008067          	ret

0000000080007034 <Xil_AssertSetCallback>:
    80007034:	fe010113          	addi	sp,sp,-32
    80007038:	00813c23          	sd	s0,24(sp)
    8000703c:	02010413          	addi	s0,sp,32
    80007040:	fea43423          	sd	a0,-24(s0)
    80007044:	00000797          	auipc	a5,0x0
    80007048:	26478793          	addi	a5,a5,612 # 800072a8 <Xil_AssertCallbackRoutine>
    8000704c:	fe843703          	ld	a4,-24(s0)
    80007050:	00e7b023          	sd	a4,0(a5)
    80007054:	00000013          	nop
    80007058:	01813403          	ld	s0,24(sp)
    8000705c:	02010113          	addi	sp,sp,32
    80007060:	00008067          	ret
    80007064:	0000                	unimp
    80007066:	0000                	unimp
    80007068:	9328                	0x9328
    8000706a:	ffff                	0xffff
    8000706c:	91f4                	0x91f4
    8000706e:	ffff                	0xffff
    80007070:	9348                	0x9348
    80007072:	ffff                	0xffff
    80007074:	9348                	0x9348
    80007076:	ffff                	0xffff
    80007078:	9348                	0x9348
    8000707a:	ffff                	0xffff
    8000707c:	9118                	0x9118
    8000707e:	ffff                	0xffff
    80007080:	9348                	0x9348
    80007082:	ffff                	0xffff
    80007084:	9348                	0x9348
    80007086:	ffff                	0xffff
    80007088:	9348                	0x9348
    8000708a:	ffff                	0xffff
    8000708c:	910c                	0x910c
    8000708e:	ffff                	0xffff
    80007090:	9348                	0x9348
    80007092:	ffff                	0xffff
    80007094:	9348                	0x9348
    80007096:	ffff                	0xffff
    80007098:	9348                	0x9348
    8000709a:	ffff                	0xffff
    8000709c:	9348                	0x9348
    8000709e:	ffff                	0xffff
    800070a0:	9348                	0x9348
    800070a2:	ffff                	0xffff
    800070a4:	9348                	0x9348
    800070a6:	ffff                	0xffff
    800070a8:	92e8                	0x92e8
    800070aa:	ffff                	0xffff
    800070ac:	9348                	0x9348
    800070ae:	ffff                	0xffff
    800070b0:	9348                	0x9348
    800070b2:	ffff                	0xffff
    800070b4:	9348                	0x9348
    800070b6:	ffff                	0xffff
    800070b8:	9348                	0x9348
    800070ba:	ffff                	0xffff
    800070bc:	9124                	0x9124
    800070be:	ffff                	0xffff
    800070c0:	6978                	ld	a4,208(a0)
    800070c2:	6369                	lui	t1,0x1a
    800070c4:	632e                	ld	t1,200(sp)
    800070c6:	0000                	unimp
    800070c8:	6978                	ld	a4,208(a0)
    800070ca:	6369                	lui	t1,0x1a
    800070cc:	645f 6e79 6d5f      	0x6d5f6e79645f
    800070d2:	7361                	lui	t1,0xffff8
    800070d4:	6574                	ld	a3,200(a0)
    800070d6:	2e72                	fld	ft8,280(sp)
    800070d8:	00000063          	beqz	zero,800070d8 <Xil_AssertSetCallback+0xa4>
    800070dc:	0000                	unimp
    800070de:	0000                	unimp
    800070e0:	6978                	ld	a4,208(a0)
    800070e2:	6369                	lui	t1,0x1a
    800070e4:	695f 746e 2e72      	0x2e72746e695f
    800070ea:	00000063          	beqz	zero,800070ea <Xil_AssertSetCallback+0xb6>
    800070ee:	0000                	unimp
    800070f0:	4949                	li	s2,18
    800070f2:	6f6c2043          	fmadd.q	ft0,fs8,fs6,fa3,rdn
    800070f6:	76656c77          	0x76656c77
    800070fa:	6c65                	lui	s8,0x19
    800070fc:	6520                	ld	s0,72(a0)
    800070fe:	7065                	c.lui	zero,0xffff9
    80007100:	6f72                	ld	t5,280(sp)
    80007102:	206d                	0x206d
    80007104:	7845                	lui	a6,0xffff1
    80007106:	6d61                	lui	s10,0x18
    80007108:	6c70                	ld	a2,216(s0)
    8000710a:	2065                	0x2065
    8000710c:	72617453          	0x72617453
    80007110:	6574                	ld	a3,200(a0)
    80007112:	0d64                	addi	s1,sp,668
    80007114:	000a                	c.slli	zero,0x2
    80007116:	0000                	unimp
    80007118:	4949                	li	s2,18
    8000711a:	6f6c2043          	fmadd.q	ft0,fs8,fs6,fa3,rdn
    8000711e:	76656c77          	0x76656c77
    80007122:	6c65                	lui	s8,0x19
    80007124:	6520                	ld	s0,72(a0)
    80007126:	7065                	c.lui	zero,0xffff9
    80007128:	6f72                	ld	t5,280(sp)
    8000712a:	206d                	0x206d
    8000712c:	7845                	lui	a6,0xffff1
    8000712e:	6d61                	lui	s10,0x18
    80007130:	6c70                	ld	a2,216(s0)
    80007132:	2065                	0x2065
    80007134:	6146                	ld	sp,80(sp)
    80007136:	6c69                	lui	s8,0x1a
    80007138:	6465                	lui	s0,0x19
    8000713a:	0a0d                	addi	s4,s4,3
    8000713c:	0000                	unimp
    8000713e:	0000                	unimp
    80007140:	63637553          	0x63637553
    80007144:	7365                	lui	t1,0xffff9
    80007146:	6c756673          	csrrsi	a2,0x6c7,10
    8000714a:	796c                	ld	a1,240(a0)
    8000714c:	7220                	ld	s0,96(a2)
    8000714e:	6e61                	lui	t3,0x18
    80007150:	4920                	lw	s0,80(a0)
    80007152:	4349                	li	t1,18
    80007154:	6c20                	ld	s0,88(s0)
    80007156:	656c776f          	jal	a4,800ce7ac <Xil_AssertCallbackRoutine+0xc7504>
    8000715a:	6576                	ld	a0,344(sp)
    8000715c:	206c                	fld	fa1,192(s0)
    8000715e:	6565                	lui	a0,0x19
    80007160:	7270                	ld	a2,224(a2)
    80007162:	45206d6f          	jal	s10,8000d5b4 <Xil_AssertCallbackRoutine+0x630c>
    80007166:	6178                	ld	a4,192(a0)
    80007168:	706d                	c.lui	zero,0xffffb
    8000716a:	656c                	ld	a1,200(a0)
    8000716c:	0a0d                	addi	s4,s4,3
    8000716e:	0000                	unimp
    80007170:	6978                	ld	a4,208(a0)
    80007172:	6369                	lui	t1,0x1a
    80007174:	6f5f 7470 6f69      	0x6f6974706f5f
    8000717a:	736e                	ld	t1,248(sp)
    8000717c:	632e                	ld	t1,200(sp)
    8000717e:	0000                	unimp
    80007180:	6978                	ld	a4,208(a0)
    80007182:	6369                	lui	t1,0x1a
    80007184:	735f 6c65 7466      	0x74666c65735f
    8000718a:	7365                	lui	t1,0xffff9
    8000718c:	2e74                	fld	fa3,216(a2)
    8000718e:	69780063          	beq	a6,s7,8000780e <Xil_AssertCallbackRoutine+0x566>
    80007192:	6369                	lui	t1,0x1a
    80007194:	735f 6e69 7469      	0x74696e69735f
    8000719a:	632e                	ld	t1,200(sp)
    8000719c:	0000                	unimp
    8000719e:	0000                	unimp
    800071a0:	6978                	ld	a4,208(a0)
    800071a2:	6369                	lui	t1,0x1a
    800071a4:	735f 6174 7374      	0x73746174735f
    800071aa:	632e                	ld	t1,200(sp)
	...
